
target/x86_64-chos-kernel/debug/chos-kernel.elf:	file format elf64-x86-64


Disassembly of section .text:

0000000000001bb0 <.text>:
    1bb0: 55                           	pushq	%rbp
    1bb1: 48 89 e5                     	movq	%rsp, %rbp
    1bb4: 48 83 ec 30                  	subq	$48, %rsp
    1bb8: 48 89 f8                     	movq	%rdi, %rax
    1bbb: 48 89 75 e0                  	movq	%rsi, -32(%rbp)
    1bbf: 48 89 55 e8                  	movq	%rdx, -24(%rbp)
    1bc3: 48 89 4d f0                  	movq	%rcx, -16(%rbp)
    1bc7: 4c 89 45 f8                  	movq	%r8, -8(%rbp)
    1bcb: 48 c7 45 d0 00 00 00 00      	movq	$0, -48(%rbp)
    1bd3: 48 89 37                     	movq	%rsi, (%rdi)
    1bd6: 48 89 57 08                  	movq	%rdx, 8(%rdi)
    1bda: 48 8b 55 d0                  	movq	-48(%rbp), %rdx
    1bde: 48 8b 75 d8                  	movq	-40(%rbp), %rsi
    1be2: 48 89 57 10                  	movq	%rdx, 16(%rdi)
    1be6: 48 89 77 18                  	movq	%rsi, 24(%rdi)
    1bea: 48 89 4f 20                  	movq	%rcx, 32(%rdi)
    1bee: 4c 89 47 28                  	movq	%r8, 40(%rdi)
    1bf2: 48 83 c4 30                  	addq	$48, %rsp
    1bf6: 5d                           	popq	%rbp
    1bf7: c3                           	retq
    1bf8: cc                           	int3
    1bf9: cc                           	int3
    1bfa: cc                           	int3
    1bfb: cc                           	int3
    1bfc: cc                           	int3
    1bfd: cc                           	int3
    1bfe: cc                           	int3
    1bff: cc                           	int3
    1c00: 55                           	pushq	%rbp
    1c01: 48 89 e5                     	movq	%rsp, %rbp
    1c04: 50                           	pushq	%rax
    1c05: 48 89 7d f8                  	movq	%rdi, -8(%rbp)
    1c09: eb fe                        	jmp	0x1c09 <.text+0x59>
    1c0b: cc                           	int3
    1c0c: cc                           	int3
    1c0d: cc                           	int3
    1c0e: cc                           	int3
    1c0f: cc                           	int3
    1c10: 55                           	pushq	%rbp
    1c11: 48 89 e5                     	movq	%rsp, %rbp
    1c14: 48 83 ec 70                  	subq	$112, %rsp
    1c18: 48 8b 35 01 4a 00 00         	movq	18945(%rip), %rsi  # 6620
    1c1f: 48 8d 05 02 5a 00 00         	leaq	23042(%rip), %rax  # 7628
    1c26: 48 89 45 f0                  	movq	%rax, -16(%rbp)
    1c2a: 48 8b 45 f0                  	movq	-16(%rbp), %rax
    1c2e: 48 89 45 f8                  	movq	%rax, -8(%rbp)
    1c32: 48 89 c7                     	movq	%rax, %rdi
    1c35: e8 66 21 00 00               	callq	0x3da0 <.text+0x21f0>
    1c3a: 48 89 45 a8                  	movq	%rax, -88(%rbp)
    1c3e: 48 89 55 a0                  	movq	%rdx, -96(%rbp)
    1c42: 48 8d 05 ef 46 00 00         	leaq	18159(%rip), %rax  # 6338
    1c49: 48 8b 4d a8                  	movq	-88(%rbp), %rcx
    1c4d: 48 89 4d e0                  	movq	%rcx, -32(%rbp)
    1c51: 48 8b 55 a0                  	movq	-96(%rbp), %rdx
    1c55: 48 89 55 e8                  	movq	%rdx, -24(%rbp)
    1c59: 48 8d 75 e0                  	leaq	-32(%rbp), %rsi
    1c5d: 48 8d 7d b0                  	leaq	-80(%rbp), %rdi
    1c61: 48 89 75 98                  	movq	%rsi, -104(%rbp)
    1c65: 48 89 c6                     	movq	%rax, %rsi
    1c68: b8 01 00 00 00               	movl	$1, %eax
    1c6d: 48 89 c2                     	movq	%rax, %rdx
    1c70: 48 8b 4d 98                  	movq	-104(%rbp), %rcx
    1c74: 49 89 c0                     	movq	%rax, %r8
    1c77: e8 34 ff ff ff               	callq	0x1bb0 <.text>
    1c7c: 48 8d 35 c5 46 00 00         	leaq	18117(%rip), %rsi  # 6348
    1c83: 48 8d 7d b0                  	leaq	-80(%rbp), %rdi
    1c87: e8 24 01 00 00               	callq	0x1db0 <.text+0x200>
    1c8c: 0f 0b                        	ud2
    1c8e: cc                           	int3
    1c8f: cc                           	int3
    1c90: 55                           	pushq	%rbp
    1c91: 48 89 e5                     	movq	%rsp, %rbp
    1c94: 48 83 ec 28                  	subq	$40, %rsp
    1c98: 48 89 7d e8                  	movq	%rdi, -24(%rbp)
    1c9c: 48 89 75 f0                  	movq	%rsi, -16(%rbp)
    1ca0: 48 89 7d d8                  	movq	%rdi, -40(%rbp)
    1ca4: 48 89 75 e0                  	movq	%rsi, -32(%rbp)
    1ca8: 48 8b 45 d8                  	movq	-40(%rbp), %rax
    1cac: 48 8b 55 e0                  	movq	-32(%rbp), %rdx
    1cb0: 48 83 c4 28                  	addq	$40, %rsp
    1cb4: 5d                           	popq	%rbp
    1cb5: c3                           	retq
    1cb6: cc                           	int3
    1cb7: cc                           	int3
    1cb8: cc                           	int3
    1cb9: cc                           	int3
    1cba: cc                           	int3
    1cbb: cc                           	int3
    1cbc: cc                           	int3
    1cbd: cc                           	int3
    1cbe: cc                           	int3
    1cbf: cc                           	int3
    1cc0: 55                           	pushq	%rbp
    1cc1: 48 89 e5                     	movq	%rsp, %rbp
    1cc4: 48 83 ec 40                  	subq	$64, %rsp
    1cc8: 48 89 7d f0                  	movq	%rdi, -16(%rbp)
    1ccc: 48 89 75 f8                  	movq	%rsi, -8(%rbp)
    1cd0: 48 89 75 e8                  	movq	%rsi, -24(%rbp)
    1cd4: 48 89 7d e0                  	movq	%rdi, -32(%rbp)
    1cd8: e8 33 00 00 00               	callq	0x1d10 <.text+0x160>
    1cdd: 48 8b 7d e0                  	movq	-32(%rbp), %rdi
    1ce1: 48 8b 75 e8                  	movq	-24(%rbp), %rsi
    1ce5: e8 26 2f 00 00               	callq	0x4c10 <.text+0x3060>
    1cea: 48 89 45 d8                  	movq	%rax, -40(%rbp)
    1cee: 48 89 55 d0                  	movq	%rdx, -48(%rbp)
    1cf2: 48 8b 7d d8                  	movq	-40(%rbp), %rdi
    1cf6: 48 8b 75 d0                  	movq	-48(%rbp), %rsi
    1cfa: e8 91 10 00 00               	callq	0x2d90 <.text+0x11e0>
    1cff: 48 89 45 c8                  	movq	%rax, -56(%rbp)
    1d03: 48 8b 45 c8                  	movq	-56(%rbp), %rax
    1d07: 48 83 c4 40                  	addq	$64, %rsp
    1d0b: 5d                           	popq	%rbp
    1d0c: c3                           	retq
    1d0d: cc                           	int3
    1d0e: cc                           	int3
    1d0f: cc                           	int3
    1d10: 55                           	pushq	%rbp
    1d11: 48 89 e5                     	movq	%rsp, %rbp
    1d14: 5d                           	popq	%rbp
    1d15: c3                           	retq
    1d16: cc                           	int3
    1d17: cc                           	int3
    1d18: cc                           	int3
    1d19: cc                           	int3
    1d1a: cc                           	int3
    1d1b: cc                           	int3
    1d1c: cc                           	int3
    1d1d: cc                           	int3
    1d1e: cc                           	int3
    1d1f: cc                           	int3
    1d20: 55                           	pushq	%rbp
    1d21: 48 89 e5                     	movq	%rsp, %rbp
    1d24: 48 83 ec 30                  	subq	$48, %rsp
    1d28: 48 89 75 e8                  	movq	%rsi, -24(%rbp)
    1d2c: 48 89 7d f8                  	movq	%rdi, -8(%rbp)
    1d30: 48 8d 45 e8                  	leaq	-24(%rbp), %rax
    1d34: 48 89 45 f0                  	movq	%rax, -16(%rbp)
    1d38: 48 8b 45 f0                  	movq	-16(%rbp), %rax
    1d3c: 48 89 c6                     	movq	%rax, %rsi
    1d3f: e8 fc 32 00 00               	callq	0x5040 <.text+0x3490>
    1d44: 88 45 e7                     	movb	%al, -25(%rbp)
    1d47: 8a 45 e7                     	movb	-25(%rbp), %al
    1d4a: 24 01                        	andb	$1, %al
    1d4c: 0f b6 c8                     	movzbl	%al, %ecx
    1d4f: 89 c8                        	movl	%ecx, %eax
    1d51: 48 89 45 d8                  	movq	%rax, -40(%rbp)
    1d55: 48 8b 45 d8                  	movq	-40(%rbp), %rax
    1d59: 48 83 c4 30                  	addq	$48, %rsp
    1d5d: 5d                           	popq	%rbp
    1d5e: c3                           	retq
    1d5f: cc                           	int3
    1d60: 55                           	pushq	%rbp
    1d61: 48 89 e5                     	movq	%rsp, %rbp
    1d64: 48 83 ec 60                  	subq	$96, %rsp
    1d68: 48 8d 05 49 e7 ff ff         	leaq	-6327(%rip), %rax  # 4b8
    1d6f: 31 c9                        	xorl	%ecx, %ecx
    1d71: 41 89 c8                     	movl	%ecx, %r8d
    1d74: 48 89 7d f0                  	movq	%rdi, -16(%rbp)
    1d78: 48 89 75 f8                  	movq	%rsi, -8(%rbp)
    1d7c: 48 89 7d e0                  	movq	%rdi, -32(%rbp)
    1d80: 48 89 75 e8                  	movq	%rsi, -24(%rbp)
    1d84: 48 8d 75 e0                  	leaq	-32(%rbp), %rsi
    1d88: 48 8d 7d b0                  	leaq	-80(%rbp), %rdi
    1d8c: 41 b9 01 00 00 00            	movl	$1, %r9d
    1d92: 48 89 55 a8                  	movq	%rdx, -88(%rbp)
    1d96: 4c 89 ca                     	movq	%r9, %rdx
    1d99: 48 89 c1                     	movq	%rax, %rcx
    1d9c: e8 4f 20 00 00               	callq	0x3df0 <.text+0x2240>
    1da1: 48 8d 7d b0                  	leaq	-80(%rbp), %rdi
    1da5: 48 8b 75 a8                  	movq	-88(%rbp), %rsi
    1da9: e8 02 00 00 00               	callq	0x1db0 <.text+0x200>
    1dae: 0f 0b                        	ud2
    1db0: 55                           	pushq	%rbp
    1db1: 48 89 e5                     	movq	%rsp, %rbp
    1db4: 48 83 ec 30                  	subq	$48, %rsp
    1db8: 48 89 7d f8                  	movq	%rdi, -8(%rbp)
    1dbc: 48 89 f7                     	movq	%rsi, %rdi
    1dbf: e8 3c 10 00 00               	callq	0x2e00 <.text+0x1250>
    1dc4: 48 89 45 d0                  	movq	%rax, -48(%rbp)
    1dc8: 48 8b 75 f8                  	movq	-8(%rbp), %rsi
    1dcc: 48 8d 7d d8                  	leaq	-40(%rbp), %rdi
    1dd0: 48 8b 55 d0                  	movq	-48(%rbp), %rdx
    1dd4: e8 e7 0f 00 00               	callq	0x2dc0 <.text+0x1210>
    1dd9: 48 8d 7d d8                  	leaq	-40(%rbp), %rdi
    1ddd: e8 1e fe ff ff               	callq	0x1c00 <.text+0x50>
    1de2: 0f 0b                        	ud2
    1de4: cc                           	int3
    1de5: cc                           	int3
    1de6: cc                           	int3
    1de7: cc                           	int3
    1de8: cc                           	int3
    1de9: cc                           	int3
    1dea: cc                           	int3
    1deb: cc                           	int3
    1dec: cc                           	int3
    1ded: cc                           	int3
    1dee: cc                           	int3
    1def: cc                           	int3
    1df0: 55                           	pushq	%rbp
    1df1: 48 89 e5                     	movq	%rsp, %rbp
    1df4: 48 83 ec 10                  	subq	$16, %rsp
    1df8: 48 89 7d f0                  	movq	%rdi, -16(%rbp)
    1dfc: 89 75 f8                     	movl	%esi, -8(%rbp)
    1dff: 48 89 f8                     	movq	%rdi, %rax
    1e02: 89 f2                        	movl	%esi, %edx
    1e04: 48 83 c4 10                  	addq	$16, %rsp
    1e08: 5d                           	popq	%rbp
    1e09: c3                           	retq
    1e0a: cc                           	int3
    1e0b: cc                           	int3
    1e0c: cc                           	int3
    1e0d: cc                           	int3
    1e0e: cc                           	int3
    1e0f: cc                           	int3
    1e10: 55                           	pushq	%rbp
    1e11: 48 89 e5                     	movq	%rsp, %rbp
    1e14: 48 83 ec 01                  	subq	$1, %rsp
    1e18: 40 88 f8                     	movb	%dil, %al
    1e1b: 24 01                        	andb	$1, %al
    1e1d: 88 45 ff                     	movb	%al, -1(%rbp)
    1e20: 40 80 e7 01                  	andb	$1, %dil
    1e24: 40 0f b6 c7                  	movzbl	%dil, %eax
    1e28: 48 83 c4 01                  	addq	$1, %rsp
    1e2c: 5d                           	popq	%rbp
    1e2d: c3                           	retq
    1e2e: cc                           	int3
    1e2f: cc                           	int3
    1e30: 55                           	pushq	%rbp
    1e31: 48 89 e5                     	movq	%rsp, %rbp
    1e34: 48 83 ec 18                  	subq	$24, %rsp
    1e38: c7 45 f0 00 00 11 00         	movl	$1114112, -16(%rbp)
    1e3f: 48 8b 45 e8                  	movq	-24(%rbp), %rax
    1e43: 8b 55 f0                     	movl	-16(%rbp), %edx
    1e46: 48 83 c4 18                  	addq	$24, %rsp
    1e4a: 5d                           	popq	%rbp
    1e4b: c3                           	retq
    1e4c: cc                           	int3
    1e4d: cc                           	int3
    1e4e: cc                           	int3
    1e4f: cc                           	int3
    1e50: 55                           	pushq	%rbp
    1e51: 48 89 e5                     	movq	%rsp, %rbp
    1e54: 48 83 ec 10                  	subq	$16, %rsp
    1e58: c6 45 f7 01                  	movb	$1, -9(%rbp)
    1e5c: 8a 45 f7                     	movb	-9(%rbp), %al
    1e5f: 24 01                        	andb	$1, %al
    1e61: 0f b6 c0                     	movzbl	%al, %eax
    1e64: 48 83 c4 10                  	addq	$16, %rsp
    1e68: 5d                           	popq	%rbp
    1e69: c3                           	retq
    1e6a: cc                           	int3
    1e6b: cc                           	int3
    1e6c: cc                           	int3
    1e6d: cc                           	int3
    1e6e: cc                           	int3
    1e6f: cc                           	int3
    1e70: 55                           	pushq	%rbp
    1e71: 48 89 e5                     	movq	%rsp, %rbp
    1e74: 48 83 ec 40                  	subq	$64, %rsp
    1e78: 48 89 7d f0                  	movq	%rdi, -16(%rbp)
    1e7c: 48 89 75 f8                  	movq	%rsi, -8(%rbp)
    1e80: 48 89 7d e8                  	movq	%rdi, -24(%rbp)
    1e84: 48 89 75 e0                  	movq	%rsi, -32(%rbp)
    1e88: e8 33 08 00 00               	callq	0x26c0 <.text+0xb10>
    1e8d: 88 45 df                     	movb	%al, -33(%rbp)
    1e90: 8a 45 df                     	movb	-33(%rbp), %al
    1e93: 34 ff                        	xorb	$-1, %al
    1e95: a8 01                        	testb	$1, %al
    1e97: 75 02                        	jne	0x1e9b <.text+0x2eb>
    1e99: eb 1a                        	jmp	0x1eb5 <.text+0x305>
    1e9b: 48 8d 3d 16 e6 ff ff         	leaq	-6634(%rip), %rdi  # 4b8
    1ea2: 48 8d 15 b7 44 00 00         	leaq	17591(%rip), %rdx  # 6360
    1ea9: be 29 00 00 00               	movl	$41, %esi
    1eae: e8 ad fe ff ff               	callq	0x1d60 <.text+0x1b0>
    1eb3: 0f 0b                        	ud2
    1eb5: eb 00                        	jmp	0x1eb7 <.text+0x307>
    1eb7: bf 01 00 00 00               	movl	$1, %edi
    1ebc: 48 8b 75 e0                  	movq	-32(%rbp), %rsi
    1ec0: e8 eb 1b 00 00               	callq	0x3ab0 <.text+0x1f00>
    1ec5: 48 89 45 d0                  	movq	%rax, -48(%rbp)
    1ec9: 48 b8 ff ff ff ff ff ff ff 7f	movabsq	$9223372036854775807, %rax
    1ed3: 48 8b 4d d0                  	movq	-48(%rbp), %rcx
    1ed7: 48 39 c1                     	cmpq	%rax, %rcx
    1eda: 0f 96 c2                     	setbe	%dl
    1edd: 80 f2 ff                     	xorb	$-1, %dl
    1ee0: f6 c2 01                     	testb	$1, %dl
    1ee3: 75 02                        	jne	0x1ee7 <.text+0x337>
    1ee5: eb 1a                        	jmp	0x1f01 <.text+0x351>
    1ee7: 48 8d 3d 65 e6 ff ff         	leaq	-6555(%rip), %rdi  # 553
    1eee: 48 8d 15 83 44 00 00         	leaq	17539(%rip), %rdx  # 6378
    1ef5: be 40 00 00 00               	movl	$64, %esi
    1efa: e8 61 fe ff ff               	callq	0x1d60 <.text+0x1b0>
    1eff: 0f 0b                        	ud2
    1f01: 48 8b 7d e8                  	movq	-24(%rbp), %rdi
    1f05: 48 8b 75 e0                  	movq	-32(%rbp), %rsi
    1f09: e8 e2 10 00 00               	callq	0x2ff0 <.text+0x1440>
    1f0e: 48 89 45 c8                  	movq	%rax, -56(%rbp)
    1f12: 48 89 55 c0                  	movq	%rdx, -64(%rbp)
    1f16: 48 8b 45 c8                  	movq	-56(%rbp), %rax
    1f1a: 48 8b 55 c0                  	movq	-64(%rbp), %rdx
    1f1e: 48 83 c4 40                  	addq	$64, %rsp
    1f22: 5d                           	popq	%rbp
    1f23: c3                           	retq
    1f24: cc                           	int3
    1f25: cc                           	int3
    1f26: cc                           	int3
    1f27: cc                           	int3
    1f28: cc                           	int3
    1f29: cc                           	int3
    1f2a: cc                           	int3
    1f2b: cc                           	int3
    1f2c: cc                           	int3
    1f2d: cc                           	int3
    1f2e: cc                           	int3
    1f2f: cc                           	int3
    1f30: 55                           	pushq	%rbp
    1f31: 48 89 e5                     	movq	%rsp, %rbp
    1f34: 48 81 ec e0 01 00 00         	subq	$480, %rsp
    1f3b: 48 89 bd 50 ff ff ff         	movq	%rdi, -176(%rbp)
    1f42: 40 88 f0                     	movb	%sil, %al
    1f45: 24 01                        	andb	$1, %al
    1f47: 88 45 97                     	movb	%al, -105(%rbp)
    1f4a: 48 89 55 98                  	movq	%rdx, -104(%rbp)
    1f4e: 8a 45 ef                     	movb	-17(%rbp), %al
    1f51: 48 89 95 48 ff ff ff         	movq	%rdx, -184(%rbp)
    1f58: 40 88 b5 47 ff ff ff         	movb	%sil, -185(%rbp)
    1f5f: 88 85 46 ff ff ff            	movb	%al, -186(%rbp)
    1f65: 48 8d 85 59 ff ff ff         	leaq	-167(%rbp), %rax
    1f6c: 48 89 c7                     	movq	%rax, %rdi
    1f6f: 8a 8d 46 ff ff ff            	movb	-186(%rbp), %cl
    1f75: 0f b6 f1                     	movzbl	%cl, %esi
    1f78: ba 27 00 00 00               	movl	$39, %edx
    1f7d: 48 89 95 38 ff ff ff         	movq	%rdx, -200(%rbp)
    1f84: 48 89 85 30 ff ff ff         	movq	%rax, -208(%rbp)
    1f8b: e8 f0 32 00 00               	callq	0x5280 <.text+0x36d0>
    1f90: 48 8b 85 30 ff ff ff         	movq	-208(%rbp), %rax
    1f97: 48 89 c7                     	movq	%rax, %rdi
    1f9a: 48 8b b5 38 ff ff ff         	movq	-200(%rbp), %rsi
    1fa1: e8 ca 19 00 00               	callq	0x3970 <.text+0x1dc0>
    1fa6: 48 89 85 28 ff ff ff         	movq	%rax, -216(%rbp)
    1fad: 48 8b 85 28 ff ff ff         	movq	-216(%rbp), %rax
    1fb4: 48 89 45 80                  	movq	%rax, -128(%rbp)
    1fb8: 48 8d 8d 59 ff ff ff         	leaq	-167(%rbp), %rcx
    1fbf: 48 89 4d f0                  	movq	%rcx, -16(%rbp)
    1fc3: 48 c7 45 f8 27 00 00 00      	movq	$39, -8(%rbp)
    1fcb: 48 89 cf                     	movq	%rcx, %rdi
    1fce: be 27 00 00 00               	movl	$39, %esi
    1fd3: e8 c8 19 00 00               	callq	0x39a0 <.text+0x1df0>
    1fd8: 48 89 45 a0                  	movq	%rax, -96(%rbp)
    1fdc: 48 89 85 20 ff ff ff         	movq	%rax, -224(%rbp)
    1fe3: 48 8b 05 be 43 00 00         	movq	17342(%rip), %rax  # 63a8
    1fea: 48 89 c7                     	movq	%rax, %rdi
    1fed: be c8 00 00 00               	movl	$200, %esi
    1ff2: e8 d9 31 00 00               	callq	0x51d0 <.text+0x3620>
    1ff7: 48 89 45 a8                  	movq	%rax, -88(%rbp)
    1ffb: 48 89 85 18 ff ff ff         	movq	%rax, -232(%rbp)
    2002: eb 00                        	jmp	0x2004 <.text+0x454>
    2004: b8 08 00 00 00               	movl	$8, %eax
    2009: 48 83 f8 02                  	cmpq	$2, %rax
    200d: 0f 93 c1                     	setae	%cl
    2010: 80 f1 ff                     	xorb	$-1, %cl
    2013: f6 c1 01                     	testb	$1, %cl
    2016: 75 02                        	jne	0x201a <.text+0x46a>
    2018: eb 1a                        	jmp	0x2034 <.text+0x484>
    201a: 48 8d 3d a0 e5 ff ff         	leaq	-6752(%rip), %rdi  # 5c1
    2021: 48 8d 15 68 43 00 00         	leaq	17256(%rip), %rdx  # 6390
    2028: be 33 00 00 00               	movl	$51, %esi
    202d: e8 2e fd ff ff               	callq	0x1d60 <.text+0x1b0>
    2032: 0f 0b                        	ud2
    2034: eb 00                        	jmp	0x2036 <.text+0x486>
    2036: 48 81 bd 50 ff ff ff 10 27 00 00     	cmpq	$10000, -176(%rbp)
    2041: 73 1b                        	jae	0x205e <.text+0x4ae>
    2043: 48 8b 85 50 ff ff ff         	movq	-176(%rbp), %rax
    204a: 48 89 45 88                  	movq	%rax, -120(%rbp)
    204e: 48 83 7d 88 64               	cmpq	$100, -120(%rbp)
    2053: 0f 8d ad 01 00 00            	jge	0x2206 <.text+0x656>
    2059: e9 d1 01 00 00               	jmp	0x222f <.text+0x67f>
    205e: 48 8b 85 50 ff ff ff         	movq	-176(%rbp), %rax
    2065: 31 c9                        	xorl	%ecx, %ecx
    2067: 89 ca                        	movl	%ecx, %edx
    2069: be 10 27 00 00               	movl	$10000, %esi
    206e: 48 f7 f6                     	divq	%rsi
    2071: 48 89 55 b0                  	movq	%rdx, -80(%rbp)
    2075: 48 8b bd 50 ff ff ff         	movq	-176(%rbp), %rdi
    207c: 48 89 f8                     	movq	%rdi, %rax
    207f: 31 c9                        	xorl	%ecx, %ecx
    2081: 48 89 95 10 ff ff ff         	movq	%rdx, -240(%rbp)
    2088: 89 ca                        	movl	%ecx, %edx
    208a: 48 f7 f6                     	divq	%rsi
    208d: 48 89 85 50 ff ff ff         	movq	%rax, -176(%rbp)
    2094: 48 b8 00 00 00 00 00 00 00 80	movabsq	$-9223372036854775808, %rax
    209e: 48 8b b5 10 ff ff ff         	movq	-240(%rbp), %rsi
    20a5: 48 39 c6                     	cmpq	%rax, %rsi
    20a8: 41 0f 94 c0                  	sete	%r8b
    20ac: 41 80 e0 00                  	andb	$0, %r8b
    20b0: 41 f6 c0 01                  	testb	$1, %r8b
    20b4: 0f 85 34 04 00 00            	jne	0x24ee <.text+0x93e>
    20ba: 48 8b 85 10 ff ff ff         	movq	-240(%rbp), %rax
    20c1: 48 99                        	cqto
    20c3: b9 64 00 00 00               	movl	$100, %ecx
    20c8: 48 f7 f9                     	idivq	%rcx
    20cb: 48 c1 e0 01                  	shlq	$1, %rax
    20cf: 48 89 85 08 ff ff ff         	movq	%rax, -248(%rbp)
    20d6: 48 8b 85 08 ff ff ff         	movq	-248(%rbp), %rax
    20dd: 48 89 45 b8                  	movq	%rax, -72(%rbp)
    20e1: 48 b9 00 00 00 00 00 00 00 80	movabsq	$-9223372036854775808, %rcx
    20eb: 48 8b 95 10 ff ff ff         	movq	-240(%rbp), %rdx
    20f2: 48 39 ca                     	cmpq	%rcx, %rdx
    20f5: 40 0f 94 c6                  	sete	%sil
    20f9: 40 80 e6 00                  	andb	$0, %sil
    20fd: 40 f6 c6 01                  	testb	$1, %sil
    2101: 0f 85 01 04 00 00            	jne	0x2508 <.text+0x958>
    2107: 48 8b 85 10 ff ff ff         	movq	-240(%rbp), %rax
    210e: 48 99                        	cqto
    2110: b9 64 00 00 00               	movl	$100, %ecx
    2115: 48 f7 f9                     	idivq	%rcx
    2118: 48 c1 e2 01                  	shlq	$1, %rdx
    211c: 48 89 95 00 ff ff ff         	movq	%rdx, -256(%rbp)
    2123: 48 8b 85 00 ff ff ff         	movq	-256(%rbp), %rax
    212a: 48 89 45 c0                  	movq	%rax, -64(%rbp)
    212e: 48 8b 4d 80                  	movq	-128(%rbp), %rcx
    2132: 48 81 e9 04 00 00 00         	subq	$4, %rcx
    2139: 0f 90 c2                     	seto	%dl
    213c: f6 c2 01                     	testb	$1, %dl
    213f: 48 89 8d f8 fe ff ff         	movq	%rcx, -264(%rbp)
    2146: 0f 85 d6 03 00 00            	jne	0x2522 <.text+0x972>
    214c: 48 8b 85 f8 fe ff ff         	movq	-264(%rbp), %rax
    2153: 48 89 45 80                  	movq	%rax, -128(%rbp)
    2157: 48 8b bd 18 ff ff ff         	movq	-232(%rbp), %rdi
    215e: 48 8b b5 08 ff ff ff         	movq	-248(%rbp), %rsi
    2165: e8 96 0d 00 00               	callq	0x2f00 <.text+0x1350>
    216a: 48 89 85 f0 fe ff ff         	movq	%rax, -272(%rbp)
    2171: 48 8b 75 80                  	movq	-128(%rbp), %rsi
    2175: 48 8b bd 20 ff ff ff         	movq	-224(%rbp), %rdi
    217c: e8 7f 1b 00 00               	callq	0x3d00 <.text+0x2150>
    2181: 48 89 85 e8 fe ff ff         	movq	%rax, -280(%rbp)
    2188: 48 8b 85 f0 fe ff ff         	movq	-272(%rbp), %rax
    218f: 66 8b 08                     	movw	(%rax), %cx
    2192: 48 8b 95 e8 fe ff ff         	movq	-280(%rbp), %rdx
    2199: 66 89 0a                     	movw	%cx, (%rdx)
    219c: 48 8b bd 18 ff ff ff         	movq	-232(%rbp), %rdi
    21a3: 48 8b b5 00 ff ff ff         	movq	-256(%rbp), %rsi
    21aa: e8 51 0d 00 00               	callq	0x2f00 <.text+0x1350>
    21af: 48 89 85 e0 fe ff ff         	movq	%rax, -288(%rbp)
    21b6: 48 8b 45 80                  	movq	-128(%rbp), %rax
    21ba: 48 05 02 00 00 00            	addq	$2, %rax
    21c0: 0f 90 c1                     	seto	%cl
    21c3: f6 c1 01                     	testb	$1, %cl
    21c6: 48 89 85 d8 fe ff ff         	movq	%rax, -296(%rbp)
    21cd: 0f 85 69 03 00 00            	jne	0x253c <.text+0x98c>
    21d3: 48 8b bd 20 ff ff ff         	movq	-224(%rbp), %rdi
    21da: 48 8b b5 d8 fe ff ff         	movq	-296(%rbp), %rsi
    21e1: e8 1a 1b 00 00               	callq	0x3d00 <.text+0x2150>
    21e6: 48 89 85 d0 fe ff ff         	movq	%rax, -304(%rbp)
    21ed: 48 8b 85 e0 fe ff ff         	movq	-288(%rbp), %rax
    21f4: 66 8b 08                     	movw	(%rax), %cx
    21f7: 48 8b 95 d0 fe ff ff         	movq	-304(%rbp), %rdx
    21fe: 66 89 0a                     	movw	%cx, (%rdx)
    2201: e9 30 fe ff ff               	jmp	0x2036 <.text+0x486>
    2206: 48 8b 45 88                  	movq	-120(%rbp), %rax
    220a: 48 b9 00 00 00 00 00 00 00 80	movabsq	$-9223372036854775808, %rcx
    2214: 48 39 c8                     	cmpq	%rcx, %rax
    2217: 0f 94 c2                     	sete	%dl
    221a: 80 e2 00                     	andb	$0, %dl
    221d: f6 c2 01                     	testb	$1, %dl
    2220: 48 89 85 c8 fe ff ff         	movq	%rax, -312(%rbp)
    2227: 0f 85 29 03 00 00            	jne	0x2556 <.text+0x9a6>
    222d: eb 05                        	jmp	0x2234 <.text+0x684>
    222f: e9 c7 00 00 00               	jmp	0x22fb <.text+0x74b>
    2234: 48 8b 85 c8 fe ff ff         	movq	-312(%rbp), %rax
    223b: 48 99                        	cqto
    223d: b9 64 00 00 00               	movl	$100, %ecx
    2242: 48 f7 f9                     	idivq	%rcx
    2245: 48 c1 e2 01                  	shlq	$1, %rdx
    2249: 48 89 95 c0 fe ff ff         	movq	%rdx, -320(%rbp)
    2250: 48 8b 85 c0 fe ff ff         	movq	-320(%rbp), %rax
    2257: 48 89 45 c8                  	movq	%rax, -56(%rbp)
    225b: 48 b9 00 00 00 00 00 00 00 80	movabsq	$-9223372036854775808, %rcx
    2265: 48 39 4d 88                  	cmpq	%rcx, -120(%rbp)
    2269: 0f 94 c2                     	sete	%dl
    226c: 80 e2 00                     	andb	$0, %dl
    226f: f6 c2 01                     	testb	$1, %dl
    2272: 0f 85 f8 02 00 00            	jne	0x2570 <.text+0x9c0>
    2278: 48 8b 45 88                  	movq	-120(%rbp), %rax
    227c: 48 99                        	cqto
    227e: b9 64 00 00 00               	movl	$100, %ecx
    2283: 48 f7 f9                     	idivq	%rcx
    2286: 48 89 45 88                  	movq	%rax, -120(%rbp)
    228a: 48 8b 45 80                  	movq	-128(%rbp), %rax
    228e: 48 2d 02 00 00 00            	subq	$2, %rax
    2294: 40 0f 90 c6                  	seto	%sil
    2298: 40 f6 c6 01                  	testb	$1, %sil
    229c: 48 89 85 b8 fe ff ff         	movq	%rax, -328(%rbp)
    22a3: 0f 85 e1 02 00 00            	jne	0x258a <.text+0x9da>
    22a9: 48 8b 85 b8 fe ff ff         	movq	-328(%rbp), %rax
    22b0: 48 89 45 80                  	movq	%rax, -128(%rbp)
    22b4: 48 8b bd 18 ff ff ff         	movq	-232(%rbp), %rdi
    22bb: 48 8b b5 c0 fe ff ff         	movq	-320(%rbp), %rsi
    22c2: e8 39 0c 00 00               	callq	0x2f00 <.text+0x1350>
    22c7: 48 89 85 b0 fe ff ff         	movq	%rax, -336(%rbp)
    22ce: 48 8b 75 80                  	movq	-128(%rbp), %rsi
    22d2: 48 8b bd 20 ff ff ff         	movq	-224(%rbp), %rdi
    22d9: e8 22 1a 00 00               	callq	0x3d00 <.text+0x2150>
    22de: 48 89 85 a8 fe ff ff         	movq	%rax, -344(%rbp)
    22e5: 48 8b 85 b0 fe ff ff         	movq	-336(%rbp), %rax
    22ec: 66 8b 08                     	movw	(%rax), %cx
    22ef: 48 8b 95 a8 fe ff ff         	movq	-344(%rbp), %rdx
    22f6: 66 89 0a                     	movw	%cx, (%rdx)
    22f9: eb 00                        	jmp	0x22fb <.text+0x74b>
    22fb: 48 83 7d 88 0a               	cmpq	$10, -120(%rbp)
    2300: 7d 1c                        	jge	0x231e <.text+0x76e>
    2302: 48 8b 45 80                  	movq	-128(%rbp), %rax
    2306: 48 ff c8                     	decq	%rax
    2309: 0f 90 c1                     	seto	%cl
    230c: f6 c1 01                     	testb	$1, %cl
    230f: 48 89 85 a0 fe ff ff         	movq	%rax, -352(%rbp)
    2316: 0f 85 88 02 00 00            	jne	0x25a4 <.text+0x9f4>
    231c: eb 11                        	jmp	0x232f <.text+0x77f>
    231e: 48 8b 45 88                  	movq	-120(%rbp), %rax
    2322: 48 c1 e0 01                  	shlq	$1, %rax
    2326: 48 89 85 98 fe ff ff         	movq	%rax, -360(%rbp)
    232d: eb 4c                        	jmp	0x237b <.text+0x7cb>
    232f: 48 8b 85 a0 fe ff ff         	movq	-352(%rbp), %rax
    2336: 48 89 45 80                  	movq	%rax, -128(%rbp)
    233a: 48 8b 4d 88                  	movq	-120(%rbp), %rcx
    233e: 80 c1 30                     	addb	$48, %cl
    2341: 0f 92 c2                     	setb	%dl
    2344: f6 c2 01                     	testb	$1, %dl
    2347: 88 8d 97 fe ff ff            	movb	%cl, -361(%rbp)
    234d: 0f 85 6b 02 00 00            	jne	0x25be <.text+0xa0e>
    2353: 48 8b 75 80                  	movq	-128(%rbp), %rsi
    2357: 48 8b bd 20 ff ff ff         	movq	-224(%rbp), %rdi
    235e: e8 9d 19 00 00               	callq	0x3d00 <.text+0x2150>
    2363: 48 89 85 88 fe ff ff         	movq	%rax, -376(%rbp)
    236a: 48 8b 85 88 fe ff ff         	movq	-376(%rbp), %rax
    2371: 8a 8d 97 fe ff ff            	movb	-361(%rbp), %cl
    2377: 88 08                        	movb	%cl, (%rax)
    2379: eb 7b                        	jmp	0x23f6 <.text+0x846>
    237b: 48 8b 85 98 fe ff ff         	movq	-360(%rbp), %rax
    2382: 48 89 45 d0                  	movq	%rax, -48(%rbp)
    2386: 48 8b 4d 80                  	movq	-128(%rbp), %rcx
    238a: 48 81 e9 02 00 00 00         	subq	$2, %rcx
    2391: 0f 90 c2                     	seto	%dl
    2394: f6 c2 01                     	testb	$1, %dl
    2397: 48 89 8d 80 fe ff ff         	movq	%rcx, -384(%rbp)
    239e: 0f 85 34 02 00 00            	jne	0x25d8 <.text+0xa28>
    23a4: 48 8b 85 80 fe ff ff         	movq	-384(%rbp), %rax
    23ab: 48 89 45 80                  	movq	%rax, -128(%rbp)
    23af: 48 8b bd 18 ff ff ff         	movq	-232(%rbp), %rdi
    23b6: 48 8b b5 98 fe ff ff         	movq	-360(%rbp), %rsi
    23bd: e8 3e 0b 00 00               	callq	0x2f00 <.text+0x1350>
    23c2: 48 89 85 78 fe ff ff         	movq	%rax, -392(%rbp)
    23c9: 48 8b 75 80                  	movq	-128(%rbp), %rsi
    23cd: 48 8b bd 20 ff ff ff         	movq	-224(%rbp), %rdi
    23d4: e8 27 19 00 00               	callq	0x3d00 <.text+0x2150>
    23d9: 48 89 85 70 fe ff ff         	movq	%rax, -400(%rbp)
    23e0: 48 8b 85 78 fe ff ff         	movq	-392(%rbp), %rax
    23e7: 66 8b 08                     	movw	(%rax), %cx
    23ea: 48 8b 95 70 fe ff ff         	movq	-400(%rbp), %rdx
    23f1: 66 89 0a                     	movw	%cx, (%rdx)
    23f4: eb 00                        	jmp	0x23f6 <.text+0x846>
    23f6: 48 8b 75 80                  	movq	-128(%rbp), %rsi
    23fa: 48 8b bd 20 ff ff ff         	movq	-224(%rbp), %rdi
    2401: e8 fa 18 00 00               	callq	0x3d00 <.text+0x2150>
    2406: 48 89 85 68 fe ff ff         	movq	%rax, -408(%rbp)
    240d: 48 8d 85 59 ff ff ff         	leaq	-167(%rbp), %rax
    2414: 48 89 c7                     	movq	%rax, %rdi
    2417: be 27 00 00 00               	movl	$39, %esi
    241c: e8 4f 15 00 00               	callq	0x3970 <.text+0x1dc0>
    2421: 48 89 85 60 fe ff ff         	movq	%rax, -416(%rbp)
    2428: 48 8b 85 60 fe ff ff         	movq	-416(%rbp), %rax
    242f: 48 2b 45 80                  	subq	-128(%rbp), %rax
    2433: 0f 92 c1                     	setb	%cl
    2436: f6 c1 01                     	testb	$1, %cl
    2439: 48 89 85 58 fe ff ff         	movq	%rax, -424(%rbp)
    2440: 0f 85 ac 01 00 00            	jne	0x25f2 <.text+0xa42>
    2446: 48 8b bd 68 fe ff ff         	movq	-408(%rbp), %rdi
    244d: 48 8b b5 58 fe ff ff         	movq	-424(%rbp), %rsi
    2454: e8 17 fa ff ff               	callq	0x1e70 <.text+0x2c0>
    2459: 48 89 85 50 fe ff ff         	movq	%rax, -432(%rbp)
    2460: 48 89 95 48 fe ff ff         	movq	%rdx, -440(%rbp)
    2467: 48 8b bd 50 fe ff ff         	movq	-432(%rbp), %rdi
    246e: 48 8b b5 48 fe ff ff         	movq	-440(%rbp), %rsi
    2475: e8 46 2b 00 00               	callq	0x4fc0 <.text+0x3410>
    247a: 48 89 45 d8                  	movq	%rax, -40(%rbp)
    247e: 48 89 55 e0                  	movq	%rdx, -32(%rbp)
    2482: 48 89 85 40 fe ff ff         	movq	%rax, -448(%rbp)
    2489: 48 89 95 38 fe ff ff         	movq	%rdx, -456(%rbp)
    2490: 8a 85 47 ff ff ff            	movb	-185(%rbp), %al
    2496: 0f b6 c8                     	movzbl	%al, %ecx
    2499: 83 e1 01                     	andl	$1, %ecx
    249c: 48 8d 15 15 e0 ff ff         	leaq	-8171(%rip), %rdx  # 4b8
    24a3: 31 f6                        	xorl	%esi, %esi
    24a5: 89 f7                        	movl	%esi, %edi
    24a7: 4c 8b 85 48 ff ff ff         	movq	-184(%rbp), %r8
    24ae: 48 89 bd 30 fe ff ff         	movq	%rdi, -464(%rbp)
    24b5: 4c 89 c7                     	movq	%r8, %rdi
    24b8: 89 ce                        	movl	%ecx, %esi
    24ba: 48 8b 8d 30 fe ff ff         	movq	-464(%rbp), %rcx
    24c1: 4c 8b 85 40 fe ff ff         	movq	-448(%rbp), %r8
    24c8: 4c 8b 8d 38 fe ff ff         	movq	-456(%rbp), %r9
    24cf: e8 ac 1a 00 00               	callq	0x3f80 <.text+0x23d0>
    24d4: 88 85 2f fe ff ff            	movb	%al, -465(%rbp)
    24da: 8a 85 2f fe ff ff            	movb	-465(%rbp), %al
    24e0: 24 01                        	andb	$1, %al
    24e2: 0f b6 c0                     	movzbl	%al, %eax
    24e5: 48 81 c4 e0 01 00 00         	addq	$480, %rsp
    24ec: 5d                           	popq	%rbp
    24ed: c3                           	retq
    24ee: 48 8d 3d 7b e1 ff ff         	leaq	-7813(%rip), %rdi  # 670
    24f5: 48 8d 15 94 3e 00 00         	leaq	16020(%rip), %rdx  # 6390
    24fc: be 1f 00 00 00               	movl	$31, %esi
    2501: e8 5a f8 ff ff               	callq	0x1d60 <.text+0x1b0>
    2506: 0f 0b                        	ud2
    2508: 48 8d 3d 81 e1 ff ff         	leaq	-7807(%rip), %rdi  # 690
    250f: 48 8d 15 7a 3e 00 00         	leaq	15994(%rip), %rdx  # 6390
    2516: be 30 00 00 00               	movl	$48, %esi
    251b: e8 40 f8 ff ff               	callq	0x1d60 <.text+0x1b0>
    2520: 0f 0b                        	ud2
    2522: 48 8d 3d 77 e0 ff ff         	leaq	-8073(%rip), %rdi  # 5a0
    2529: 48 8d 15 60 3e 00 00         	leaq	15968(%rip), %rdx  # 6390
    2530: be 21 00 00 00               	movl	$33, %esi
    2535: e8 26 f8 ff ff               	callq	0x1d60 <.text+0x1b0>
    253a: 0f 0b                        	ud2
    253c: 48 8d 3d 7d e1 ff ff         	leaq	-7811(%rip), %rdi  # 6c0
    2543: 48 8d 15 46 3e 00 00         	leaq	15942(%rip), %rdx  # 6390
    254a: be 1c 00 00 00               	movl	$28, %esi
    254f: e8 0c f8 ff ff               	callq	0x1d60 <.text+0x1b0>
    2554: 0f 0b                        	ud2
    2556: 48 8d 3d 33 e1 ff ff         	leaq	-7885(%rip), %rdi  # 690
    255d: 48 8d 15 2c 3e 00 00         	leaq	15916(%rip), %rdx  # 6390
    2564: be 30 00 00 00               	movl	$48, %esi
    2569: e8 f2 f7 ff ff               	callq	0x1d60 <.text+0x1b0>
    256e: 0f 0b                        	ud2
    2570: 48 8d 3d f9 e0 ff ff         	leaq	-7943(%rip), %rdi  # 670
    2577: 48 8d 15 12 3e 00 00         	leaq	15890(%rip), %rdx  # 6390
    257e: be 1f 00 00 00               	movl	$31, %esi
    2583: e8 d8 f7 ff ff               	callq	0x1d60 <.text+0x1b0>
    2588: 0f 0b                        	ud2
    258a: 48 8d 3d 0f e0 ff ff         	leaq	-8177(%rip), %rdi  # 5a0
    2591: 48 8d 15 f8 3d 00 00         	leaq	15864(%rip), %rdx  # 6390
    2598: be 21 00 00 00               	movl	$33, %esi
    259d: e8 be f7 ff ff               	callq	0x1d60 <.text+0x1b0>
    25a2: 0f 0b                        	ud2
    25a4: 48 8d 3d f5 df ff ff         	leaq	-8203(%rip), %rdi  # 5a0
    25ab: 48 8d 15 de 3d 00 00         	leaq	15838(%rip), %rdx  # 6390
    25b2: be 21 00 00 00               	movl	$33, %esi
    25b7: e8 a4 f7 ff ff               	callq	0x1d60 <.text+0x1b0>
    25bc: 0f 0b                        	ud2
    25be: 48 8d 3d fb e0 ff ff         	leaq	-7941(%rip), %rdi  # 6c0
    25c5: 48 8d 15 c4 3d 00 00         	leaq	15812(%rip), %rdx  # 6390
    25cc: be 1c 00 00 00               	movl	$28, %esi
    25d1: e8 8a f7 ff ff               	callq	0x1d60 <.text+0x1b0>
    25d6: 0f 0b                        	ud2
    25d8: 48 8d 3d c1 df ff ff         	leaq	-8255(%rip), %rdi  # 5a0
    25df: 48 8d 15 aa 3d 00 00         	leaq	15786(%rip), %rdx  # 6390
    25e6: be 21 00 00 00               	movl	$33, %esi
    25eb: e8 70 f7 ff ff               	callq	0x1d60 <.text+0x1b0>
    25f0: 0f 0b                        	ud2
    25f2: 48 8d 3d a7 df ff ff         	leaq	-8281(%rip), %rdi  # 5a0
    25f9: 48 8d 15 90 3d 00 00         	leaq	15760(%rip), %rdx  # 6390
    2600: be 21 00 00 00               	movl	$33, %esi
    2605: e8 56 f7 ff ff               	callq	0x1d60 <.text+0x1b0>
    260a: 0f 0b                        	ud2
    260c: cc                           	int3
    260d: cc                           	int3
    260e: cc                           	int3
    260f: cc                           	int3
    2610: 55                           	pushq	%rbp
    2611: 48 89 e5                     	movq	%rsp, %rbp
    2614: 48 83 ec 50                  	subq	$80, %rsp
    2618: 48 89 7d e8                  	movq	%rdi, -24(%rbp)
    261c: 48 89 75 f0                  	movq	%rsi, -16(%rbp)
    2620: 48 83 3f 00                  	cmpq	$0, (%rdi)
    2624: 0f 93 c0                     	setae	%al
    2627: 88 c1                        	movb	%al, %cl
    2629: 80 e1 01                     	andb	$1, %cl
    262c: 88 4d ff                     	movb	%cl, -1(%rbp)
    262f: a8 01                        	testb	$1, %al
    2631: 48 89 75 d8                  	movq	%rsi, -40(%rbp)
    2635: 48 89 7d d0                  	movq	%rdi, -48(%rbp)
    2639: 88 45 cf                     	movb	%al, -49(%rbp)
    263c: 75 02                        	jne	0x2640 <.text+0xa90>
    263e: eb 0f                        	jmp	0x264f <.text+0xa9f>
    2640: 48 8b 7d d0                  	movq	-48(%rbp), %rdi
    2644: e8 57 00 00 00               	callq	0x26a0 <.text+0xaf0>
    2649: 48 89 45 e0                  	movq	%rax, -32(%rbp)
    264d: eb 28                        	jmp	0x2677 <.text+0xac7>
    264f: 48 8b 7d d0                  	movq	-48(%rbp), %rdi
    2653: e8 48 00 00 00               	callq	0x26a0 <.text+0xaf0>
    2658: 48 89 45 c0                  	movq	%rax, -64(%rbp)
    265c: 48 8b 45 c0                  	movq	-64(%rbp), %rax
    2660: 48 35 ff ff ff ff            	xorq	$-1, %rax
    2666: 48 89 c7                     	movq	%rax, %rdi
    2669: be 01 00 00 00               	movl	$1, %esi
    266e: e8 7d 13 00 00               	callq	0x39f0 <.text+0x1e40>
    2673: 48 89 45 e0                  	movq	%rax, -32(%rbp)
    2677: 48 8b 7d e0                  	movq	-32(%rbp), %rdi
    267b: 8a 45 cf                     	movb	-49(%rbp), %al
    267e: 0f b6 c8                     	movzbl	%al, %ecx
    2681: 83 e1 01                     	andl	$1, %ecx
    2684: 89 ce                        	movl	%ecx, %esi
    2686: 48 8b 55 d8                  	movq	-40(%rbp), %rdx
    268a: e8 a1 f8 ff ff               	callq	0x1f30 <.text+0x380>
    268f: 88 45 bf                     	movb	%al, -65(%rbp)
    2692: 8a 45 bf                     	movb	-65(%rbp), %al
    2695: 24 01                        	andb	$1, %al
    2697: 0f b6 c0                     	movzbl	%al, %eax
    269a: 48 83 c4 50                  	addq	$80, %rsp
    269e: 5d                           	popq	%rbp
    269f: c3                           	retq
    26a0: 55                           	pushq	%rbp
    26a1: 48 89 e5                     	movq	%rsp, %rbp
    26a4: 50                           	pushq	%rax
    26a5: 48 89 7d f8                  	movq	%rdi, -8(%rbp)
    26a9: 48 8b 07                     	movq	(%rdi), %rax
    26ac: 48 83 c4 08                  	addq	$8, %rsp
    26b0: 5d                           	popq	%rbp
    26b1: c3                           	retq
    26b2: cc                           	int3
    26b3: cc                           	int3
    26b4: cc                           	int3
    26b5: cc                           	int3
    26b6: cc                           	int3
    26b7: cc                           	int3
    26b8: cc                           	int3
    26b9: cc                           	int3
    26ba: cc                           	int3
    26bb: cc                           	int3
    26bc: cc                           	int3
    26bd: cc                           	int3
    26be: cc                           	int3
    26bf: cc                           	int3
    26c0: 55                           	pushq	%rbp
    26c1: 48 89 e5                     	movq	%rsp, %rbp
    26c4: 48 83 ec 30                  	subq	$48, %rsp
    26c8: 48 89 7d f0                  	movq	%rdi, -16(%rbp)
    26cc: 48 89 7d e0                  	movq	%rdi, -32(%rbp)
    26d0: e8 7b 07 00 00               	callq	0x2e50 <.text+0x12a0>
    26d5: 88 45 df                     	movb	%al, -33(%rbp)
    26d8: eb 2c                        	jmp	0x2706 <.text+0xb56>
    26da: c6 45 ef 01                  	movb	$1, -17(%rbp)
    26de: eb 18                        	jmp	0x26f8 <.text+0xb48>
    26e0: c6 45 ef 00                  	movb	$0, -17(%rbp)
    26e4: eb 12                        	jmp	0x26f8 <.text+0xb48>
    26e6: 48 c7 45 f8 01 00 00 00      	movq	$1, -8(%rbp)
    26ee: 48 8b 45 f8                  	movq	-8(%rbp), %rax
    26f2: 48 89 45 d0                  	movq	%rax, -48(%rbp)
    26f6: eb 19                        	jmp	0x2711 <.text+0xb61>
    26f8: 8a 45 ef                     	movb	-17(%rbp), %al
    26fb: 24 01                        	andb	$1, %al
    26fd: 0f b6 c0                     	movzbl	%al, %eax
    2700: 48 83 c4 30                  	addq	$48, %rsp
    2704: 5d                           	popq	%rbp
    2705: c3                           	retq
    2706: 8a 45 df                     	movb	-33(%rbp), %al
    2709: 34 ff                        	xorb	$-1, %al
    270b: a8 01                        	testb	$1, %al
    270d: 75 d7                        	jne	0x26e6 <.text+0xb36>
    270f: eb cf                        	jmp	0x26e0 <.text+0xb30>
    2711: 48 8b 45 d0                  	movq	-48(%rbp), %rax
    2715: 48 83 f8 00                  	cmpq	$0, %rax
    2719: 0f 94 c1                     	sete	%cl
    271c: f6 c1 01                     	testb	$1, %cl
    271f: 75 17                        	jne	0x2738 <.text+0xb88>
    2721: 48 8b 45 e0                  	movq	-32(%rbp), %rax
    2725: 31 c9                        	xorl	%ecx, %ecx
    2727: 89 ca                        	movl	%ecx, %edx
    2729: 48 8b 75 d0                  	movq	-48(%rbp), %rsi
    272d: 48 f7 f6                     	divq	%rsi
    2730: 48 83 fa 00                  	cmpq	$0, %rdx
    2734: 74 a4                        	je	0x26da <.text+0xb2a>
    2736: eb a8                        	jmp	0x26e0 <.text+0xb30>
    2738: 48 8d 3d 11 e1 ff ff         	leaq	-7919(%rip), %rdi  # 850
    273f: 48 8d 15 6a 3c 00 00         	leaq	15466(%rip), %rdx  # 63b0
    2746: be 39 00 00 00               	movl	$57, %esi
    274b: e8 10 f6 ff ff               	callq	0x1d60 <.text+0x1b0>
    2750: 0f 0b                        	ud2
    2752: cc                           	int3
    2753: cc                           	int3
    2754: cc                           	int3
    2755: cc                           	int3
    2756: cc                           	int3
    2757: cc                           	int3
    2758: cc                           	int3
    2759: cc                           	int3
    275a: cc                           	int3
    275b: cc                           	int3
    275c: cc                           	int3
    275d: cc                           	int3
    275e: cc                           	int3
    275f: cc                           	int3
    2760: 55                           	pushq	%rbp
    2761: 48 89 e5                     	movq	%rsp, %rbp
    2764: 48 83 ec 30                  	subq	$48, %rsp
    2768: 48 89 7d f0                  	movq	%rdi, -16(%rbp)
    276c: 48 89 7d e0                  	movq	%rdi, -32(%rbp)
    2770: e8 3b 07 00 00               	callq	0x2eb0 <.text+0x1300>
    2775: 88 45 df                     	movb	%al, -33(%rbp)
    2778: eb 2c                        	jmp	0x27a6 <.text+0xbf6>
    277a: c6 45 ef 01                  	movb	$1, -17(%rbp)
    277e: eb 18                        	jmp	0x2798 <.text+0xbe8>
    2780: c6 45 ef 00                  	movb	$0, -17(%rbp)
    2784: eb 12                        	jmp	0x2798 <.text+0xbe8>
    2786: 48 c7 45 f8 04 00 00 00      	movq	$4, -8(%rbp)
    278e: 48 8b 45 f8                  	movq	-8(%rbp), %rax
    2792: 48 89 45 d0                  	movq	%rax, -48(%rbp)
    2796: eb 19                        	jmp	0x27b1 <.text+0xc01>
    2798: 8a 45 ef                     	movb	-17(%rbp), %al
    279b: 24 01                        	andb	$1, %al
    279d: 0f b6 c0                     	movzbl	%al, %eax
    27a0: 48 83 c4 30                  	addq	$48, %rsp
    27a4: 5d                           	popq	%rbp
    27a5: c3                           	retq
    27a6: 8a 45 df                     	movb	-33(%rbp), %al
    27a9: 34 ff                        	xorb	$-1, %al
    27ab: a8 01                        	testb	$1, %al
    27ad: 75 d7                        	jne	0x2786 <.text+0xbd6>
    27af: eb cf                        	jmp	0x2780 <.text+0xbd0>
    27b1: 48 8b 45 d0                  	movq	-48(%rbp), %rax
    27b5: 48 83 f8 00                  	cmpq	$0, %rax
    27b9: 0f 94 c1                     	sete	%cl
    27bc: f6 c1 01                     	testb	$1, %cl
    27bf: 75 17                        	jne	0x27d8 <.text+0xc28>
    27c1: 48 8b 45 e0                  	movq	-32(%rbp), %rax
    27c5: 31 c9                        	xorl	%ecx, %ecx
    27c7: 89 ca                        	movl	%ecx, %edx
    27c9: 48 8b 75 d0                  	movq	-48(%rbp), %rsi
    27cd: 48 f7 f6                     	divq	%rsi
    27d0: 48 83 fa 00                  	cmpq	$0, %rdx
    27d4: 74 a4                        	je	0x277a <.text+0xbca>
    27d6: eb a8                        	jmp	0x2780 <.text+0xbd0>
    27d8: 48 8d 3d 71 e0 ff ff         	leaq	-8079(%rip), %rdi  # 850
    27df: 48 8d 15 ca 3b 00 00         	leaq	15306(%rip), %rdx  # 63b0
    27e6: be 39 00 00 00               	movl	$57, %esi
    27eb: e8 70 f5 ff ff               	callq	0x1d60 <.text+0x1b0>
    27f0: 0f 0b                        	ud2
    27f2: cc                           	int3
    27f3: cc                           	int3
    27f4: cc                           	int3
    27f5: cc                           	int3
    27f6: cc                           	int3
    27f7: cc                           	int3
    27f8: cc                           	int3
    27f9: cc                           	int3
    27fa: cc                           	int3
    27fb: cc                           	int3
    27fc: cc                           	int3
    27fd: cc                           	int3
    27fe: cc                           	int3
    27ff: cc                           	int3
    2800: 55                           	pushq	%rbp
    2801: 48 89 e5                     	movq	%rsp, %rbp
    2804: 48 83 ec 30                  	subq	$48, %rsp
    2808: 48 89 7d f0                  	movq	%rdi, -16(%rbp)
    280c: 48 89 7d e0                  	movq	%rdi, -32(%rbp)
    2810: e8 0b 06 00 00               	callq	0x2e20 <.text+0x1270>
    2815: 88 45 df                     	movb	%al, -33(%rbp)
    2818: eb 2c                        	jmp	0x2846 <.text+0xc96>
    281a: c6 45 ef 01                  	movb	$1, -17(%rbp)
    281e: eb 18                        	jmp	0x2838 <.text+0xc88>
    2820: c6 45 ef 00                  	movb	$0, -17(%rbp)
    2824: eb 12                        	jmp	0x2838 <.text+0xc88>
    2826: 48 c7 45 f8 08 00 00 00      	movq	$8, -8(%rbp)
    282e: 48 8b 45 f8                  	movq	-8(%rbp), %rax
    2832: 48 89 45 d0                  	movq	%rax, -48(%rbp)
    2836: eb 19                        	jmp	0x2851 <.text+0xca1>
    2838: 8a 45 ef                     	movb	-17(%rbp), %al
    283b: 24 01                        	andb	$1, %al
    283d: 0f b6 c0                     	movzbl	%al, %eax
    2840: 48 83 c4 30                  	addq	$48, %rsp
    2844: 5d                           	popq	%rbp
    2845: c3                           	retq
    2846: 8a 45 df                     	movb	-33(%rbp), %al
    2849: 34 ff                        	xorb	$-1, %al
    284b: a8 01                        	testb	$1, %al
    284d: 75 d7                        	jne	0x2826 <.text+0xc76>
    284f: eb cf                        	jmp	0x2820 <.text+0xc70>
    2851: 48 8b 45 d0                  	movq	-48(%rbp), %rax
    2855: 48 83 f8 00                  	cmpq	$0, %rax
    2859: 0f 94 c1                     	sete	%cl
    285c: f6 c1 01                     	testb	$1, %cl
    285f: 75 17                        	jne	0x2878 <.text+0xcc8>
    2861: 48 8b 45 e0                  	movq	-32(%rbp), %rax
    2865: 31 c9                        	xorl	%ecx, %ecx
    2867: 89 ca                        	movl	%ecx, %edx
    2869: 48 8b 75 d0                  	movq	-48(%rbp), %rsi
    286d: 48 f7 f6                     	divq	%rsi
    2870: 48 83 fa 00                  	cmpq	$0, %rdx
    2874: 74 a4                        	je	0x281a <.text+0xc6a>
    2876: eb a8                        	jmp	0x2820 <.text+0xc70>
    2878: 48 8d 3d d1 df ff ff         	leaq	-8239(%rip), %rdi  # 850
    287f: 48 8d 15 2a 3b 00 00         	leaq	15146(%rip), %rdx  # 63b0
    2886: be 39 00 00 00               	movl	$57, %esi
    288b: e8 d0 f4 ff ff               	callq	0x1d60 <.text+0x1b0>
    2890: 0f 0b                        	ud2
    2892: cc                           	int3
    2893: cc                           	int3
    2894: cc                           	int3
    2895: cc                           	int3
    2896: cc                           	int3
    2897: cc                           	int3
    2898: cc                           	int3
    2899: cc                           	int3
    289a: cc                           	int3
    289b: cc                           	int3
    289c: cc                           	int3
    289d: cc                           	int3
    289e: cc                           	int3
    289f: cc                           	int3
    28a0: 55                           	pushq	%rbp
    28a1: 48 89 e5                     	movq	%rsp, %rbp
    28a4: 48 83 ec 30                  	subq	$48, %rsp
    28a8: 48 89 7d f0                  	movq	%rdi, -16(%rbp)
    28ac: 48 89 7d e0                  	movq	%rdi, -32(%rbp)
    28b0: e8 cb 05 00 00               	callq	0x2e80 <.text+0x12d0>
    28b5: 88 45 df                     	movb	%al, -33(%rbp)
    28b8: eb 2c                        	jmp	0x28e6 <.text+0xd36>
    28ba: c6 45 ef 01                  	movb	$1, -17(%rbp)
    28be: eb 18                        	jmp	0x28d8 <.text+0xd28>
    28c0: c6 45 ef 00                  	movb	$0, -17(%rbp)
    28c4: eb 12                        	jmp	0x28d8 <.text+0xd28>
    28c6: 48 c7 45 f8 01 00 00 00      	movq	$1, -8(%rbp)
    28ce: 48 8b 45 f8                  	movq	-8(%rbp), %rax
    28d2: 48 89 45 d0                  	movq	%rax, -48(%rbp)
    28d6: eb 19                        	jmp	0x28f1 <.text+0xd41>
    28d8: 8a 45 ef                     	movb	-17(%rbp), %al
    28db: 24 01                        	andb	$1, %al
    28dd: 0f b6 c0                     	movzbl	%al, %eax
    28e0: 48 83 c4 30                  	addq	$48, %rsp
    28e4: 5d                           	popq	%rbp
    28e5: c3                           	retq
    28e6: 8a 45 df                     	movb	-33(%rbp), %al
    28e9: 34 ff                        	xorb	$-1, %al
    28eb: a8 01                        	testb	$1, %al
    28ed: 75 d7                        	jne	0x28c6 <.text+0xd16>
    28ef: eb cf                        	jmp	0x28c0 <.text+0xd10>
    28f1: 48 8b 45 d0                  	movq	-48(%rbp), %rax
    28f5: 48 83 f8 00                  	cmpq	$0, %rax
    28f9: 0f 94 c1                     	sete	%cl
    28fc: f6 c1 01                     	testb	$1, %cl
    28ff: 75 17                        	jne	0x2918 <.text+0xd68>
    2901: 48 8b 45 e0                  	movq	-32(%rbp), %rax
    2905: 31 c9                        	xorl	%ecx, %ecx
    2907: 89 ca                        	movl	%ecx, %edx
    2909: 48 8b 75 d0                  	movq	-48(%rbp), %rsi
    290d: 48 f7 f6                     	divq	%rsi
    2910: 48 83 fa 00                  	cmpq	$0, %rdx
    2914: 74 a4                        	je	0x28ba <.text+0xd0a>
    2916: eb a8                        	jmp	0x28c0 <.text+0xd10>
    2918: 48 8d 3d 31 df ff ff         	leaq	-8399(%rip), %rdi  # 850
    291f: 48 8d 15 8a 3a 00 00         	leaq	14986(%rip), %rdx  # 63b0
    2926: be 39 00 00 00               	movl	$57, %esi
    292b: e8 30 f4 ff ff               	callq	0x1d60 <.text+0x1b0>
    2930: 0f 0b                        	ud2
    2932: cc                           	int3
    2933: cc                           	int3
    2934: cc                           	int3
    2935: cc                           	int3
    2936: cc                           	int3
    2937: cc                           	int3
    2938: cc                           	int3
    2939: cc                           	int3
    293a: cc                           	int3
    293b: cc                           	int3
    293c: cc                           	int3
    293d: cc                           	int3
    293e: cc                           	int3
    293f: cc                           	int3
    2940: 55                           	pushq	%rbp
    2941: 48 89 e5                     	movq	%rsp, %rbp
    2944: 48 81 ec 80 00 00 00         	subq	$128, %rsp
    294b: 48 89 7d d0                  	movq	%rdi, -48(%rbp)
    294f: 48 89 75 d8                  	movq	%rsi, -40(%rbp)
    2953: 48 89 55 e0                  	movq	%rdx, -32(%rbp)
    2957: 48 89 7d e8                  	movq	%rdi, -24(%rbp)
    295b: 48 89 75 f0                  	movq	%rsi, -16(%rbp)
    295f: 48 89 55 c0                  	movq	%rdx, -64(%rbp)
    2963: 48 89 75 b8                  	movq	%rsi, -72(%rbp)
    2967: 48 89 7d b0                  	movq	%rdi, -80(%rbp)
    296b: bf 01 00 00 00               	movl	$1, %edi
    2970: 48 8b 75 c0                  	movq	-64(%rbp), %rsi
    2974: e8 c7 10 00 00               	callq	0x3a40 <.text+0x1e90>
    2979: 48 89 45 a8                  	movq	%rax, -88(%rbp)
    297d: 48 89 55 a0                  	movq	%rdx, -96(%rbp)
    2981: 48 8d 05 40 3a 00 00         	leaq	14912(%rip), %rax  # 63c8
    2988: 48 8b 7d a8                  	movq	-88(%rbp), %rdi
    298c: 48 8b 75 a0                  	movq	-96(%rbp), %rsi
    2990: 48 89 c2                     	movq	%rax, %rdx
    2993: e8 58 23 00 00               	callq	0x4cf0 <.text+0x3140>
    2998: 48 89 45 f8                  	movq	%rax, -8(%rbp)
    299c: 48 89 45 98                  	movq	%rax, -104(%rbp)
    29a0: 48 8b 45 b0                  	movq	-80(%rbp), %rax
    29a4: 48 8b 4d b8                  	movq	-72(%rbp), %rcx
    29a8: 48 39 c8                     	cmpq	%rcx, %rax
    29ab: 76 19                        	jbe	0x29c6 <.text+0xe16>
    29ad: 48 8b 45 b0                  	movq	-80(%rbp), %rax
    29b1: 48 8b 4d b8                  	movq	-72(%rbp), %rcx
    29b5: 48 29 c8                     	subq	%rcx, %rax
    29b8: 0f 92 c2                     	setb	%dl
    29bb: f6 c2 01                     	testb	$1, %dl
    29be: 48 89 45 90                  	movq	%rax, -112(%rbp)
    29c2: 75 49                        	jne	0x2a0d <.text+0xe5d>
    29c4: eb 19                        	jmp	0x29df <.text+0xe2f>
    29c6: 48 8b 45 b8                  	movq	-72(%rbp), %rax
    29ca: 48 8b 4d b0                  	movq	-80(%rbp), %rcx
    29ce: 48 29 c8                     	subq	%rcx, %rax
    29d1: 0f 92 c2                     	setb	%dl
    29d4: f6 c2 01                     	testb	$1, %dl
    29d7: 48 89 45 88                  	movq	%rax, -120(%rbp)
    29db: 75 4a                        	jne	0x2a27 <.text+0xe77>
    29dd: eb 0a                        	jmp	0x29e9 <.text+0xe39>
    29df: 48 8b 45 90                  	movq	-112(%rbp), %rax
    29e3: 48 89 45 c8                  	movq	%rax, -56(%rbp)
    29e7: eb 08                        	jmp	0x29f1 <.text+0xe41>
    29e9: 48 8b 45 88                  	movq	-120(%rbp), %rax
    29ed: 48 89 45 c8                  	movq	%rax, -56(%rbp)
    29f1: 48 8b 45 98                  	movq	-104(%rbp), %rax
    29f5: 48 39 45 c8                  	cmpq	%rax, -56(%rbp)
    29f9: 0f 93 c1                     	setae	%cl
    29fc: 80 e1 01                     	andb	$1, %cl
    29ff: 0f b6 d1                     	movzbl	%cl, %edx
    2a02: 89 d0                        	movl	%edx, %eax
    2a04: 48 81 c4 80 00 00 00         	addq	$128, %rsp
    2a0b: 5d                           	popq	%rbp
    2a0c: c3                           	retq
    2a0d: 48 8d 3d 9c dd ff ff         	leaq	-8804(%rip), %rdi  # 7b0
    2a14: 48 8d 15 c5 39 00 00         	leaq	14789(%rip), %rdx  # 63e0
    2a1b: be 21 00 00 00               	movl	$33, %esi
    2a20: e8 3b f3 ff ff               	callq	0x1d60 <.text+0x1b0>
    2a25: 0f 0b                        	ud2
    2a27: 48 8d 3d 82 dd ff ff         	leaq	-8830(%rip), %rdi  # 7b0
    2a2e: 48 8d 15 c3 39 00 00         	leaq	14787(%rip), %rdx  # 63f8
    2a35: be 21 00 00 00               	movl	$33, %esi
    2a3a: e8 21 f3 ff ff               	callq	0x1d60 <.text+0x1b0>
    2a3f: 0f 0b                        	ud2
    2a41: cc                           	int3
    2a42: cc                           	int3
    2a43: cc                           	int3
    2a44: cc                           	int3
    2a45: cc                           	int3
    2a46: cc                           	int3
    2a47: cc                           	int3
    2a48: cc                           	int3
    2a49: cc                           	int3
    2a4a: cc                           	int3
    2a4b: cc                           	int3
    2a4c: cc                           	int3
    2a4d: cc                           	int3
    2a4e: cc                           	int3
    2a4f: cc                           	int3
    2a50: 55                           	pushq	%rbp
    2a51: 48 89 e5                     	movq	%rsp, %rbp
    2a54: 48 81 ec 80 00 00 00         	subq	$128, %rsp
    2a5b: 48 89 7d d0                  	movq	%rdi, -48(%rbp)
    2a5f: 48 89 75 d8                  	movq	%rsi, -40(%rbp)
    2a63: 48 89 55 e0                  	movq	%rdx, -32(%rbp)
    2a67: 48 89 7d e8                  	movq	%rdi, -24(%rbp)
    2a6b: 48 89 75 f0                  	movq	%rsi, -16(%rbp)
    2a6f: 48 89 55 c0                  	movq	%rdx, -64(%rbp)
    2a73: 48 89 75 b8                  	movq	%rsi, -72(%rbp)
    2a77: 48 89 7d b0                  	movq	%rdi, -80(%rbp)
    2a7b: bf 08 00 00 00               	movl	$8, %edi
    2a80: 48 8b 75 c0                  	movq	-64(%rbp), %rsi
    2a84: e8 b7 0f 00 00               	callq	0x3a40 <.text+0x1e90>
    2a89: 48 89 45 a8                  	movq	%rax, -88(%rbp)
    2a8d: 48 89 55 a0                  	movq	%rdx, -96(%rbp)
    2a91: 48 8d 05 30 39 00 00         	leaq	14640(%rip), %rax  # 63c8
    2a98: 48 8b 7d a8                  	movq	-88(%rbp), %rdi
    2a9c: 48 8b 75 a0                  	movq	-96(%rbp), %rsi
    2aa0: 48 89 c2                     	movq	%rax, %rdx
    2aa3: e8 48 22 00 00               	callq	0x4cf0 <.text+0x3140>
    2aa8: 48 89 45 f8                  	movq	%rax, -8(%rbp)
    2aac: 48 89 45 98                  	movq	%rax, -104(%rbp)
    2ab0: 48 8b 45 b0                  	movq	-80(%rbp), %rax
    2ab4: 48 8b 4d b8                  	movq	-72(%rbp), %rcx
    2ab8: 48 39 c8                     	cmpq	%rcx, %rax
    2abb: 76 19                        	jbe	0x2ad6 <.text+0xf26>
    2abd: 48 8b 45 b0                  	movq	-80(%rbp), %rax
    2ac1: 48 8b 4d b8                  	movq	-72(%rbp), %rcx
    2ac5: 48 29 c8                     	subq	%rcx, %rax
    2ac8: 0f 92 c2                     	setb	%dl
    2acb: f6 c2 01                     	testb	$1, %dl
    2ace: 48 89 45 90                  	movq	%rax, -112(%rbp)
    2ad2: 75 49                        	jne	0x2b1d <.text+0xf6d>
    2ad4: eb 19                        	jmp	0x2aef <.text+0xf3f>
    2ad6: 48 8b 45 b8                  	movq	-72(%rbp), %rax
    2ada: 48 8b 4d b0                  	movq	-80(%rbp), %rcx
    2ade: 48 29 c8                     	subq	%rcx, %rax
    2ae1: 0f 92 c2                     	setb	%dl
    2ae4: f6 c2 01                     	testb	$1, %dl
    2ae7: 48 89 45 88                  	movq	%rax, -120(%rbp)
    2aeb: 75 4a                        	jne	0x2b37 <.text+0xf87>
    2aed: eb 0a                        	jmp	0x2af9 <.text+0xf49>
    2aef: 48 8b 45 90                  	movq	-112(%rbp), %rax
    2af3: 48 89 45 c8                  	movq	%rax, -56(%rbp)
    2af7: eb 08                        	jmp	0x2b01 <.text+0xf51>
    2af9: 48 8b 45 88                  	movq	-120(%rbp), %rax
    2afd: 48 89 45 c8                  	movq	%rax, -56(%rbp)
    2b01: 48 8b 45 98                  	movq	-104(%rbp), %rax
    2b05: 48 39 45 c8                  	cmpq	%rax, -56(%rbp)
    2b09: 0f 93 c1                     	setae	%cl
    2b0c: 80 e1 01                     	andb	$1, %cl
    2b0f: 0f b6 d1                     	movzbl	%cl, %edx
    2b12: 89 d0                        	movl	%edx, %eax
    2b14: 48 81 c4 80 00 00 00         	addq	$128, %rsp
    2b1b: 5d                           	popq	%rbp
    2b1c: c3                           	retq
    2b1d: 48 8d 3d 8c dc ff ff         	leaq	-9076(%rip), %rdi  # 7b0
    2b24: 48 8d 15 b5 38 00 00         	leaq	14517(%rip), %rdx  # 63e0
    2b2b: be 21 00 00 00               	movl	$33, %esi
    2b30: e8 2b f2 ff ff               	callq	0x1d60 <.text+0x1b0>
    2b35: 0f 0b                        	ud2
    2b37: 48 8d 3d 72 dc ff ff         	leaq	-9102(%rip), %rdi  # 7b0
    2b3e: 48 8d 15 b3 38 00 00         	leaq	14515(%rip), %rdx  # 63f8
    2b45: be 21 00 00 00               	movl	$33, %esi
    2b4a: e8 11 f2 ff ff               	callq	0x1d60 <.text+0x1b0>
    2b4f: 0f 0b                        	ud2
    2b51: cc                           	int3
    2b52: cc                           	int3
    2b53: cc                           	int3
    2b54: cc                           	int3
    2b55: cc                           	int3
    2b56: cc                           	int3
    2b57: cc                           	int3
    2b58: cc                           	int3
    2b59: cc                           	int3
    2b5a: cc                           	int3
    2b5b: cc                           	int3
    2b5c: cc                           	int3
    2b5d: cc                           	int3
    2b5e: cc                           	int3
    2b5f: cc                           	int3
    2b60: 55                           	pushq	%rbp
    2b61: 48 89 e5                     	movq	%rsp, %rbp
    2b64: 48 81 ec 80 00 00 00         	subq	$128, %rsp
    2b6b: 48 89 7d d0                  	movq	%rdi, -48(%rbp)
    2b6f: 48 89 75 d8                  	movq	%rsi, -40(%rbp)
    2b73: 48 89 55 e0                  	movq	%rdx, -32(%rbp)
    2b77: 48 89 7d e8                  	movq	%rdi, -24(%rbp)
    2b7b: 48 89 75 f0                  	movq	%rsi, -16(%rbp)
    2b7f: 48 89 55 c0                  	movq	%rdx, -64(%rbp)
    2b83: 48 89 75 b8                  	movq	%rsi, -72(%rbp)
    2b87: 48 89 7d b0                  	movq	%rdi, -80(%rbp)
    2b8b: bf 04 00 00 00               	movl	$4, %edi
    2b90: 48 8b 75 c0                  	movq	-64(%rbp), %rsi
    2b94: e8 a7 0e 00 00               	callq	0x3a40 <.text+0x1e90>
    2b99: 48 89 45 a8                  	movq	%rax, -88(%rbp)
    2b9d: 48 89 55 a0                  	movq	%rdx, -96(%rbp)
    2ba1: 48 8d 05 20 38 00 00         	leaq	14368(%rip), %rax  # 63c8
    2ba8: 48 8b 7d a8                  	movq	-88(%rbp), %rdi
    2bac: 48 8b 75 a0                  	movq	-96(%rbp), %rsi
    2bb0: 48 89 c2                     	movq	%rax, %rdx
    2bb3: e8 38 21 00 00               	callq	0x4cf0 <.text+0x3140>
    2bb8: 48 89 45 f8                  	movq	%rax, -8(%rbp)
    2bbc: 48 89 45 98                  	movq	%rax, -104(%rbp)
    2bc0: 48 8b 45 b0                  	movq	-80(%rbp), %rax
    2bc4: 48 8b 4d b8                  	movq	-72(%rbp), %rcx
    2bc8: 48 39 c8                     	cmpq	%rcx, %rax
    2bcb: 76 19                        	jbe	0x2be6 <.text+0x1036>
    2bcd: 48 8b 45 b0                  	movq	-80(%rbp), %rax
    2bd1: 48 8b 4d b8                  	movq	-72(%rbp), %rcx
    2bd5: 48 29 c8                     	subq	%rcx, %rax
    2bd8: 0f 92 c2                     	setb	%dl
    2bdb: f6 c2 01                     	testb	$1, %dl
    2bde: 48 89 45 90                  	movq	%rax, -112(%rbp)
    2be2: 75 49                        	jne	0x2c2d <.text+0x107d>
    2be4: eb 19                        	jmp	0x2bff <.text+0x104f>
    2be6: 48 8b 45 b8                  	movq	-72(%rbp), %rax
    2bea: 48 8b 4d b0                  	movq	-80(%rbp), %rcx
    2bee: 48 29 c8                     	subq	%rcx, %rax
    2bf1: 0f 92 c2                     	setb	%dl
    2bf4: f6 c2 01                     	testb	$1, %dl
    2bf7: 48 89 45 88                  	movq	%rax, -120(%rbp)
    2bfb: 75 4a                        	jne	0x2c47 <.text+0x1097>
    2bfd: eb 0a                        	jmp	0x2c09 <.text+0x1059>
    2bff: 48 8b 45 90                  	movq	-112(%rbp), %rax
    2c03: 48 89 45 c8                  	movq	%rax, -56(%rbp)
    2c07: eb 08                        	jmp	0x2c11 <.text+0x1061>
    2c09: 48 8b 45 88                  	movq	-120(%rbp), %rax
    2c0d: 48 89 45 c8                  	movq	%rax, -56(%rbp)
    2c11: 48 8b 45 98                  	movq	-104(%rbp), %rax
    2c15: 48 39 45 c8                  	cmpq	%rax, -56(%rbp)
    2c19: 0f 93 c1                     	setae	%cl
    2c1c: 80 e1 01                     	andb	$1, %cl
    2c1f: 0f b6 d1                     	movzbl	%cl, %edx
    2c22: 89 d0                        	movl	%edx, %eax
    2c24: 48 81 c4 80 00 00 00         	addq	$128, %rsp
    2c2b: 5d                           	popq	%rbp
    2c2c: c3                           	retq
    2c2d: 48 8d 3d 7c db ff ff         	leaq	-9348(%rip), %rdi  # 7b0
    2c34: 48 8d 15 a5 37 00 00         	leaq	14245(%rip), %rdx  # 63e0
    2c3b: be 21 00 00 00               	movl	$33, %esi
    2c40: e8 1b f1 ff ff               	callq	0x1d60 <.text+0x1b0>
    2c45: 0f 0b                        	ud2
    2c47: 48 8d 3d 62 db ff ff         	leaq	-9374(%rip), %rdi  # 7b0
    2c4e: 48 8d 15 a3 37 00 00         	leaq	14243(%rip), %rdx  # 63f8
    2c55: be 21 00 00 00               	movl	$33, %esi
    2c5a: e8 01 f1 ff ff               	callq	0x1d60 <.text+0x1b0>
    2c5f: 0f 0b                        	ud2
    2c61: cc                           	int3
    2c62: cc                           	int3
    2c63: cc                           	int3
    2c64: cc                           	int3
    2c65: cc                           	int3
    2c66: cc                           	int3
    2c67: cc                           	int3
    2c68: cc                           	int3
    2c69: cc                           	int3
    2c6a: cc                           	int3
    2c6b: cc                           	int3
    2c6c: cc                           	int3
    2c6d: cc                           	int3
    2c6e: cc                           	int3
    2c6f: cc                           	int3
    2c70: 55                           	pushq	%rbp
    2c71: 48 89 e5                     	movq	%rsp, %rbp
    2c74: 48 83 ec 10                  	subq	$16, %rsp
    2c78: 48 89 7d f8                  	movq	%rdi, -8(%rbp)
    2c7c: e8 2f 24 00 00               	callq	0x50b0 <.text+0x3500>
    2c81: 48 89 45 f0                  	movq	%rax, -16(%rbp)
    2c85: 48 8b 45 f0                  	movq	-16(%rbp), %rax
    2c89: 48 83 c4 10                  	addq	$16, %rsp
    2c8d: 5d                           	popq	%rbp
    2c8e: c3                           	retq
    2c8f: cc                           	int3
    2c90: 55                           	pushq	%rbp
    2c91: 48 89 e5                     	movq	%rsp, %rbp
    2c94: 48 83 ec 28                  	subq	$40, %rsp
    2c98: 48 89 7d e8                  	movq	%rdi, -24(%rbp)
    2c9c: 48 89 75 f0                  	movq	%rsi, -16(%rbp)
    2ca0: 48 89 7d d8                  	movq	%rdi, -40(%rbp)
    2ca4: 48 89 75 e0                  	movq	%rsi, -32(%rbp)
    2ca8: 48 8b 45 d8                  	movq	-40(%rbp), %rax
    2cac: 48 8b 55 e0                  	movq	-32(%rbp), %rdx
    2cb0: 48 83 c4 28                  	addq	$40, %rsp
    2cb4: 5d                           	popq	%rbp
    2cb5: c3                           	retq
    2cb6: cc                           	int3
    2cb7: cc                           	int3
    2cb8: cc                           	int3
    2cb9: cc                           	int3
    2cba: cc                           	int3
    2cbb: cc                           	int3
    2cbc: cc                           	int3
    2cbd: cc                           	int3
    2cbe: cc                           	int3
    2cbf: cc                           	int3
    2cc0: 55                           	pushq	%rbp
    2cc1: 48 89 e5                     	movq	%rsp, %rbp
    2cc4: 5d                           	popq	%rbp
    2cc5: c3                           	retq
    2cc6: cc                           	int3
    2cc7: cc                           	int3
    2cc8: cc                           	int3
    2cc9: cc                           	int3
    2cca: cc                           	int3
    2ccb: cc                           	int3
    2ccc: cc                           	int3
    2ccd: cc                           	int3
    2cce: cc                           	int3
    2ccf: cc                           	int3
    2cd0: 55                           	pushq	%rbp
    2cd1: 48 89 e5                     	movq	%rsp, %rbp
    2cd4: 48 83 ec 50                  	subq	$80, %rsp
    2cd8: 48 89 7d e8                  	movq	%rdi, -24(%rbp)
    2cdc: 48 89 75 f0                  	movq	%rsi, -16(%rbp)
    2ce0: 48 89 55 f8                  	movq	%rdx, -8(%rbp)
    2ce4: 48 89 f8                     	movq	%rdi, %rax
    2ce7: 48 89 55 e0                  	movq	%rdx, -32(%rbp)
    2ceb: 48 8b 4d e0                  	movq	-32(%rbp), %rcx
    2cef: 48 89 75 c8                  	movq	%rsi, -56(%rbp)
    2cf3: 48 89 ce                     	movq	%rcx, %rsi
    2cf6: 48 89 45 c0                  	movq	%rax, -64(%rbp)
    2cfa: e8 21 f0 ff ff               	callq	0x1d20 <.text+0x170>
    2cff: 48 89 45 b8                  	movq	%rax, -72(%rbp)
    2d03: 48 8b 45 c8                  	movq	-56(%rbp), %rax
    2d07: 48 89 45 d0                  	movq	%rax, -48(%rbp)
    2d0b: 48 8b 4d b8                  	movq	-72(%rbp), %rcx
    2d0f: 48 89 4d d8                  	movq	%rcx, -40(%rbp)
    2d13: 48 8b 75 d0                  	movq	-48(%rbp), %rsi
    2d17: 48 8b 55 d8                  	movq	-40(%rbp), %rdx
    2d1b: 48 8b 7d c0                  	movq	-64(%rbp), %rdi
    2d1f: e8 fc 0b 00 00               	callq	0x3920 <.text+0x1d70>
    2d24: 48 89 45 b0                  	movq	%rax, -80(%rbp)
    2d28: 48 8b 45 b0                  	movq	-80(%rbp), %rax
    2d2c: 48 83 c4 50                  	addq	$80, %rsp
    2d30: 5d                           	popq	%rbp
    2d31: c3                           	retq
    2d32: cc                           	int3
    2d33: cc                           	int3
    2d34: cc                           	int3
    2d35: cc                           	int3
    2d36: cc                           	int3
    2d37: cc                           	int3
    2d38: cc                           	int3
    2d39: cc                           	int3
    2d3a: cc                           	int3
    2d3b: cc                           	int3
    2d3c: cc                           	int3
    2d3d: cc                           	int3
    2d3e: cc                           	int3
    2d3f: cc                           	int3
    2d40: 55                           	pushq	%rbp
    2d41: 48 89 e5                     	movq	%rsp, %rbp
    2d44: 48 83 ec 40                  	subq	$64, %rsp
    2d48: 48 89 7d e0                  	movq	%rdi, -32(%rbp)
    2d4c: 48 89 75 e8                  	movq	%rsi, -24(%rbp)
    2d50: 48 89 55 f0                  	movq	%rdx, -16(%rbp)
    2d54: 48 89 55 d8                  	movq	%rdx, -40(%rbp)
    2d58: 48 89 75 d0                  	movq	%rsi, -48(%rbp)
    2d5c: 48 89 7d c8                  	movq	%rdi, -56(%rbp)
    2d60: e8 5b ff ff ff               	callq	0x2cc0 <.text+0x1110>
    2d65: 48 8b 7d c8                  	movq	-56(%rbp), %rdi
    2d69: 48 8b 75 d0                  	movq	-48(%rbp), %rsi
    2d6d: 48 8b 55 d8                  	movq	-40(%rbp), %rdx
    2d71: e8 fa 1e 00 00               	callq	0x4c70 <.text+0x30c0>
    2d76: 48 89 45 c0                  	movq	%rax, -64(%rbp)
    2d7a: 48 8b 45 c0                  	movq	-64(%rbp), %rax
    2d7e: 48 83 c4 40                  	addq	$64, %rsp
    2d82: 5d                           	popq	%rbp
    2d83: c3                           	retq
    2d84: cc                           	int3
    2d85: cc                           	int3
    2d86: cc                           	int3
    2d87: cc                           	int3
    2d88: cc                           	int3
    2d89: cc                           	int3
    2d8a: cc                           	int3
    2d8b: cc                           	int3
    2d8c: cc                           	int3
    2d8d: cc                           	int3
    2d8e: cc                           	int3
    2d8f: cc                           	int3
    2d90: 55                           	pushq	%rbp
    2d91: 48 89 e5                     	movq	%rsp, %rbp
    2d94: 48 83 ec 20                  	subq	$32, %rsp
    2d98: 48 89 7d f0                  	movq	%rdi, -16(%rbp)
    2d9c: 48 89 75 f8                  	movq	%rsi, -8(%rbp)
    2da0: e8 4b 0b 00 00               	callq	0x38f0 <.text+0x1d40>
    2da5: 48 89 45 e8                  	movq	%rax, -24(%rbp)
    2da9: 48 8b 45 e8                  	movq	-24(%rbp), %rax
    2dad: 48 83 c4 20                  	addq	$32, %rsp
    2db1: 5d                           	popq	%rbp
    2db2: c3                           	retq
    2db3: cc                           	int3
    2db4: cc                           	int3
    2db5: cc                           	int3
    2db6: cc                           	int3
    2db7: cc                           	int3
    2db8: cc                           	int3
    2db9: cc                           	int3
    2dba: cc                           	int3
    2dbb: cc                           	int3
    2dbc: cc                           	int3
    2dbd: cc                           	int3
    2dbe: cc                           	int3
    2dbf: cc                           	int3
    2dc0: 55                           	pushq	%rbp
    2dc1: 48 89 e5                     	movq	%rsp, %rbp
    2dc4: 48 83 ec 10                  	subq	$16, %rsp
    2dc8: 48 89 f8                     	movq	%rdi, %rax
    2dcb: 48 8d 0d 3e 36 00 00         	leaq	13886(%rip), %rcx  # 6410
    2dd2: 4c 8d 05 b0 da ff ff         	leaq	-9552(%rip), %r8  # 889
    2dd9: 48 89 75 f0                  	movq	%rsi, -16(%rbp)
    2ddd: 48 89 55 f8                  	movq	%rdx, -8(%rbp)
    2de1: 4c 89 07                     	movq	%r8, (%rdi)
    2de4: 48 89 4f 08                  	movq	%rcx, 8(%rdi)
    2de8: 48 89 77 10                  	movq	%rsi, 16(%rdi)
    2dec: 48 89 57 18                  	movq	%rdx, 24(%rdi)
    2df0: 48 83 c4 10                  	addq	$16, %rsp
    2df4: 5d                           	popq	%rbp
    2df5: c3                           	retq
    2df6: cc                           	int3
    2df7: cc                           	int3
    2df8: cc                           	int3
    2df9: cc                           	int3
    2dfa: cc                           	int3
    2dfb: cc                           	int3
    2dfc: cc                           	int3
    2dfd: cc                           	int3
    2dfe: cc                           	int3
    2dff: cc                           	int3
    2e00: 55                           	pushq	%rbp
    2e01: 48 89 e5                     	movq	%rsp, %rbp
    2e04: 48 83 ec 10                  	subq	$16, %rsp
    2e08: 48 89 7d f8                  	movq	%rdi, -8(%rbp)
    2e0c: 48 8b 45 f8                  	movq	-8(%rbp), %rax
    2e10: 48 89 45 f0                  	movq	%rax, -16(%rbp)
    2e14: 48 8b 45 f0                  	movq	-16(%rbp), %rax
    2e18: 48 83 c4 10                  	addq	$16, %rsp
    2e1c: 5d                           	popq	%rbp
    2e1d: c3                           	retq
    2e1e: cc                           	int3
    2e1f: cc                           	int3
    2e20: 55                           	pushq	%rbp
    2e21: 48 89 e5                     	movq	%rsp, %rbp
    2e24: 48 83 ec 20                  	subq	$32, %rsp
    2e28: 48 89 7d f8                  	movq	%rdi, -8(%rbp)
    2e2c: 48 89 7d f0                  	movq	%rdi, -16(%rbp)
    2e30: 31 c0                        	xorl	%eax, %eax
    2e32: 89 c6                        	movl	%eax, %esi
    2e34: 48 8b 7d f0                  	movq	-16(%rbp), %rdi
    2e38: e8 23 01 00 00               	callq	0x2f60 <.text+0x13b0>
    2e3d: 88 45 ef                     	movb	%al, -17(%rbp)
    2e40: 8a 45 ef                     	movb	-17(%rbp), %al
    2e43: 24 01                        	andb	$1, %al
    2e45: 0f b6 c0                     	movzbl	%al, %eax
    2e48: 48 83 c4 20                  	addq	$32, %rsp
    2e4c: 5d                           	popq	%rbp
    2e4d: c3                           	retq
    2e4e: cc                           	int3
    2e4f: cc                           	int3
    2e50: 55                           	pushq	%rbp
    2e51: 48 89 e5                     	movq	%rsp, %rbp
    2e54: 48 83 ec 20                  	subq	$32, %rsp
    2e58: 48 89 7d f8                  	movq	%rdi, -8(%rbp)
    2e5c: 48 89 7d f0                  	movq	%rdi, -16(%rbp)
    2e60: 31 c0                        	xorl	%eax, %eax
    2e62: 89 c6                        	movl	%eax, %esi
    2e64: 48 8b 7d f0                  	movq	-16(%rbp), %rdi
    2e68: e8 f3 00 00 00               	callq	0x2f60 <.text+0x13b0>
    2e6d: 88 45 ef                     	movb	%al, -17(%rbp)
    2e70: 8a 45 ef                     	movb	-17(%rbp), %al
    2e73: 24 01                        	andb	$1, %al
    2e75: 0f b6 c0                     	movzbl	%al, %eax
    2e78: 48 83 c4 20                  	addq	$32, %rsp
    2e7c: 5d                           	popq	%rbp
    2e7d: c3                           	retq
    2e7e: cc                           	int3
    2e7f: cc                           	int3
    2e80: 55                           	pushq	%rbp
    2e81: 48 89 e5                     	movq	%rsp, %rbp
    2e84: 48 83 ec 20                  	subq	$32, %rsp
    2e88: 48 89 7d f8                  	movq	%rdi, -8(%rbp)
    2e8c: 48 89 7d f0                  	movq	%rdi, -16(%rbp)
    2e90: 31 c0                        	xorl	%eax, %eax
    2e92: 89 c6                        	movl	%eax, %esi
    2e94: 48 8b 7d f0                  	movq	-16(%rbp), %rdi
    2e98: e8 c3 00 00 00               	callq	0x2f60 <.text+0x13b0>
    2e9d: 88 45 ef                     	movb	%al, -17(%rbp)
    2ea0: 8a 45 ef                     	movb	-17(%rbp), %al
    2ea3: 24 01                        	andb	$1, %al
    2ea5: 0f b6 c0                     	movzbl	%al, %eax
    2ea8: 48 83 c4 20                  	addq	$32, %rsp
    2eac: 5d                           	popq	%rbp
    2ead: c3                           	retq
    2eae: cc                           	int3
    2eaf: cc                           	int3
    2eb0: 55                           	pushq	%rbp
    2eb1: 48 89 e5                     	movq	%rsp, %rbp
    2eb4: 48 83 ec 20                  	subq	$32, %rsp
    2eb8: 48 89 7d f8                  	movq	%rdi, -8(%rbp)
    2ebc: 48 89 7d f0                  	movq	%rdi, -16(%rbp)
    2ec0: 31 c0                        	xorl	%eax, %eax
    2ec2: 89 c6                        	movl	%eax, %esi
    2ec4: 48 8b 7d f0                  	movq	-16(%rbp), %rdi
    2ec8: e8 93 00 00 00               	callq	0x2f60 <.text+0x13b0>
    2ecd: 88 45 ef                     	movb	%al, -17(%rbp)
    2ed0: 8a 45 ef                     	movb	-17(%rbp), %al
    2ed3: 24 01                        	andb	$1, %al
    2ed5: 0f b6 c0                     	movzbl	%al, %eax
    2ed8: 48 83 c4 20                  	addq	$32, %rsp
    2edc: 5d                           	popq	%rbp
    2edd: c3                           	retq
    2ede: cc                           	int3
    2edf: cc                           	int3
    2ee0: 55                           	pushq	%rbp
    2ee1: 48 89 e5                     	movq	%rsp, %rbp
    2ee4: 50                           	pushq	%rax
    2ee5: 48 89 7d f8                  	movq	%rdi, -8(%rbp)
    2ee9: 48 89 f8                     	movq	%rdi, %rax
    2eec: 48 83 c4 08                  	addq	$8, %rsp
    2ef0: 5d                           	popq	%rbp
    2ef1: c3                           	retq
    2ef2: cc                           	int3
    2ef3: cc                           	int3
    2ef4: cc                           	int3
    2ef5: cc                           	int3
    2ef6: cc                           	int3
    2ef7: cc                           	int3
    2ef8: cc                           	int3
    2ef9: cc                           	int3
    2efa: cc                           	int3
    2efb: cc                           	int3
    2efc: cc                           	int3
    2efd: cc                           	int3
    2efe: cc                           	int3
    2eff: cc                           	int3
    2f00: 55                           	pushq	%rbp
    2f01: 48 89 e5                     	movq	%rsp, %rbp
    2f04: 48 83 ec 20                  	subq	$32, %rsp
    2f08: 48 89 7d e8                  	movq	%rdi, -24(%rbp)
    2f0c: 48 89 75 f0                  	movq	%rsi, -16(%rbp)
    2f10: 48 01 f7                     	addq	%rsi, %rdi
    2f13: 48 89 7d f8                  	movq	%rdi, -8(%rbp)
    2f17: 48 8b 45 f8                  	movq	-8(%rbp), %rax
    2f1b: 48 89 45 e0                  	movq	%rax, -32(%rbp)
    2f1f: 48 8b 45 e0                  	movq	-32(%rbp), %rax
    2f23: 48 83 c4 20                  	addq	$32, %rsp
    2f27: 5d                           	popq	%rbp
    2f28: c3                           	retq
    2f29: cc                           	int3
    2f2a: cc                           	int3
    2f2b: cc                           	int3
    2f2c: cc                           	int3
    2f2d: cc                           	int3
    2f2e: cc                           	int3
    2f2f: cc                           	int3
    2f30: 55                           	pushq	%rbp
    2f31: 48 89 e5                     	movq	%rsp, %rbp
    2f34: 48 83 ec 20                  	subq	$32, %rsp
    2f38: 48 89 7d e8                  	movq	%rdi, -24(%rbp)
    2f3c: 48 89 75 f0                  	movq	%rsi, -16(%rbp)
    2f40: 48 01 f7                     	addq	%rsi, %rdi
    2f43: 48 89 7d f8                  	movq	%rdi, -8(%rbp)
    2f47: 48 8b 45 f8                  	movq	-8(%rbp), %rax
    2f4b: 48 89 45 e0                  	movq	%rax, -32(%rbp)
    2f4f: 48 8b 45 e0                  	movq	-32(%rbp), %rax
    2f53: 48 83 c4 20                  	addq	$32, %rsp
    2f57: 5d                           	popq	%rbp
    2f58: c3                           	retq
    2f59: cc                           	int3
    2f5a: cc                           	int3
    2f5b: cc                           	int3
    2f5c: cc                           	int3
    2f5d: cc                           	int3
    2f5e: cc                           	int3
    2f5f: cc                           	int3
    2f60: 55                           	pushq	%rbp
    2f61: 48 89 e5                     	movq	%rsp, %rbp
    2f64: 48 83 ec 20                  	subq	$32, %rsp
    2f68: 48 89 7d e8                  	movq	%rdi, -24(%rbp)
    2f6c: 48 89 75 f0                  	movq	%rsi, -16(%rbp)
    2f70: 48 39 f7                     	cmpq	%rsi, %rdi
    2f73: 0f 94 c0                     	sete	%al
    2f76: 24 01                        	andb	$1, %al
    2f78: 88 45 ff                     	movb	%al, -1(%rbp)
    2f7b: 8a 45 ff                     	movb	-1(%rbp), %al
    2f7e: 88 45 e7                     	movb	%al, -25(%rbp)
    2f81: 8a 45 e7                     	movb	-25(%rbp), %al
    2f84: 24 01                        	andb	$1, %al
    2f86: 0f b6 c0                     	movzbl	%al, %eax
    2f89: 48 83 c4 20                  	addq	$32, %rsp
    2f8d: 5d                           	popq	%rbp
    2f8e: c3                           	retq
    2f8f: cc                           	int3
    2f90: 55                           	pushq	%rbp
    2f91: 48 89 e5                     	movq	%rsp, %rbp
    2f94: 48 83 ec 20                  	subq	$32, %rsp
    2f98: 48 89 7d f0                  	movq	%rdi, -16(%rbp)
    2f9c: 48 89 75 f8                  	movq	%rsi, -8(%rbp)
    2fa0: e8 5b ff ff ff               	callq	0x2f00 <.text+0x1350>
    2fa5: 48 89 45 e8                  	movq	%rax, -24(%rbp)
    2fa9: 48 8b 45 e8                  	movq	-24(%rbp), %rax
    2fad: 48 83 c4 20                  	addq	$32, %rsp
    2fb1: 5d                           	popq	%rbp
    2fb2: c3                           	retq
    2fb3: cc                           	int3
    2fb4: cc                           	int3
    2fb5: cc                           	int3
    2fb6: cc                           	int3
    2fb7: cc                           	int3
    2fb8: cc                           	int3
    2fb9: cc                           	int3
    2fba: cc                           	int3
    2fbb: cc                           	int3
    2fbc: cc                           	int3
    2fbd: cc                           	int3
    2fbe: cc                           	int3
    2fbf: cc                           	int3
    2fc0: 55                           	pushq	%rbp
    2fc1: 48 89 e5                     	movq	%rsp, %rbp
    2fc4: 48 83 ec 20                  	subq	$32, %rsp
    2fc8: 48 89 7d f0                  	movq	%rdi, -16(%rbp)
    2fcc: 48 89 75 f8                  	movq	%rsi, -8(%rbp)
    2fd0: e8 5b ff ff ff               	callq	0x2f30 <.text+0x1380>
    2fd5: 48 89 45 e8                  	movq	%rax, -24(%rbp)
    2fd9: 48 8b 45 e8                  	movq	-24(%rbp), %rax
    2fdd: 48 83 c4 20                  	addq	$32, %rsp
    2fe1: 5d                           	popq	%rbp
    2fe2: c3                           	retq
    2fe3: cc                           	int3
    2fe4: cc                           	int3
    2fe5: cc                           	int3
    2fe6: cc                           	int3
    2fe7: cc                           	int3
    2fe8: cc                           	int3
    2fe9: cc                           	int3
    2fea: cc                           	int3
    2feb: cc                           	int3
    2fec: cc                           	int3
    2fed: cc                           	int3
    2fee: cc                           	int3
    2fef: cc                           	int3
    2ff0: 55                           	pushq	%rbp
    2ff1: 48 89 e5                     	movq	%rsp, %rbp
    2ff4: 48 83 ec 30                  	subq	$48, %rsp
    2ff8: 48 89 7d f0                  	movq	%rdi, -16(%rbp)
    2ffc: 48 89 75 f8                  	movq	%rsi, -8(%rbp)
    3000: 48 89 75 e8                  	movq	%rsi, -24(%rbp)
    3004: e8 d7 fe ff ff               	callq	0x2ee0 <.text+0x1330>
    3009: 48 89 45 e0                  	movq	%rax, -32(%rbp)
    300d: 48 8b 7d e0                  	movq	-32(%rbp), %rdi
    3011: 48 8b 75 e8                  	movq	-24(%rbp), %rsi
    3015: e8 36 0c 00 00               	callq	0x3c50 <.text+0x20a0>
    301a: 48 89 45 d8                  	movq	%rax, -40(%rbp)
    301e: 48 89 55 d0                  	movq	%rdx, -48(%rbp)
    3022: 48 8b 45 d8                  	movq	-40(%rbp), %rax
    3026: 48 8b 55 d0                  	movq	-48(%rbp), %rdx
    302a: 48 83 c4 30                  	addq	$48, %rsp
    302e: 5d                           	popq	%rbp
    302f: c3                           	retq
    3030: 55                           	pushq	%rbp
    3031: 48 89 e5                     	movq	%rsp, %rbp
    3034: 48 83 ec 70                  	subq	$112, %rsp
    3038: 48 89 7d d0                  	movq	%rdi, -48(%rbp)
    303c: 48 89 75 d8                  	movq	%rsi, -40(%rbp)
    3040: 48 89 55 e0                  	movq	%rdx, -32(%rbp)
    3044: 48 89 7d c0                  	movq	%rdi, -64(%rbp)
    3048: 48 89 55 b8                  	movq	%rdx, -72(%rbp)
    304c: 48 89 75 b0                  	movq	%rsi, -80(%rbp)
    3050: e8 ab f7 ff ff               	callq	0x2800 <.text+0xc50>
    3055: 88 45 af                     	movb	%al, -81(%rbp)
    3058: eb 61                        	jmp	0x30bb <.text+0x150b>
    305a: c6 45 cd 01                  	movb	$1, -51(%rbp)
    305e: eb 04                        	jmp	0x3064 <.text+0x14b4>
    3060: c6 45 cd 00                  	movb	$0, -51(%rbp)
    3064: f6 45 cd 01                  	testb	$1, -51(%rbp)
    3068: 75 6c                        	jne	0x30d6 <.text+0x1526>
    306a: eb 6e                        	jmp	0x30da <.text+0x152a>
    306c: c6 45 ce 01                  	movb	$1, -50(%rbp)
    3070: eb 1c                        	jmp	0x308e <.text+0x14de>
    3072: c6 45 ce 00                  	movb	$0, -50(%rbp)
    3076: eb 16                        	jmp	0x308e <.text+0x14de>
    3078: 48 8b 7d c0                  	movq	-64(%rbp), %rdi
    307c: 48 8b 75 b0                  	movq	-80(%rbp), %rsi
    3080: 48 8b 55 b8                  	movq	-72(%rbp), %rdx
    3084: e8 c7 f9 ff ff               	callq	0x2a50 <.text+0xea0>
    3089: 88 45 ae                     	movb	%al, -82(%rbp)
    308c: eb 3f                        	jmp	0x30cd <.text+0x151d>
    308e: 8a 45 ce                     	movb	-50(%rbp), %al
    3091: 34 ff                        	xorb	$-1, %al
    3093: a8 01                        	testb	$1, %al
    3095: 75 c3                        	jne	0x305a <.text+0x14aa>
    3097: eb c7                        	jmp	0x3060 <.text+0x14b0>
    3099: c6 45 cf 01                  	movb	$1, -49(%rbp)
    309d: eb 14                        	jmp	0x30b3 <.text+0x1503>
    309f: c6 45 cf 00                  	movb	$0, -49(%rbp)
    30a3: eb 0e                        	jmp	0x30b3 <.text+0x1503>
    30a5: 48 8b 7d b0                  	movq	-80(%rbp), %rdi
    30a9: e8 52 f7 ff ff               	callq	0x2800 <.text+0xc50>
    30ae: 88 45 ad                     	movb	%al, -83(%rbp)
    30b1: eb 11                        	jmp	0x30c4 <.text+0x1514>
    30b3: f6 45 cf 01                  	testb	$1, -49(%rbp)
    30b7: 75 bf                        	jne	0x3078 <.text+0x14c8>
    30b9: eb b7                        	jmp	0x3072 <.text+0x14c2>
    30bb: 8a 45 af                     	movb	-81(%rbp), %al
    30be: a8 01                        	testb	$1, %al
    30c0: 75 e3                        	jne	0x30a5 <.text+0x14f5>
    30c2: eb db                        	jmp	0x309f <.text+0x14ef>
    30c4: 8a 45 ad                     	movb	-83(%rbp), %al
    30c7: a8 01                        	testb	$1, %al
    30c9: 75 ce                        	jne	0x3099 <.text+0x14e9>
    30cb: eb d2                        	jmp	0x309f <.text+0x14ef>
    30cd: 8a 45 ae                     	movb	-82(%rbp), %al
    30d0: a8 01                        	testb	$1, %al
    30d2: 75 98                        	jne	0x306c <.text+0x14bc>
    30d4: eb 9c                        	jmp	0x3072 <.text+0x14c2>
    30d6: 0f 0b                        	ud2
    30d8: 0f 0b                        	ud2
    30da: 48 8b 45 c0                  	movq	-64(%rbp), %rax
    30de: 48 89 45 e8                  	movq	%rax, -24(%rbp)
    30e2: 48 8b 4d b0                  	movq	-80(%rbp), %rcx
    30e6: 48 89 4d f0                  	movq	%rcx, -16(%rbp)
    30ea: 48 89 45 a0                  	movq	%rax, -96(%rbp)
    30ee: 48 89 4d 98                  	movq	%rcx, -104(%rbp)
    30f2: 48 8b 45 b8                  	movq	-72(%rbp), %rax
    30f6: b9 08 00 00 00               	movl	$8, %ecx
    30fb: 48 f7 e1                     	mulq	%rcx
    30fe: 40 0f 90 c6                  	seto	%sil
    3102: 40 f6 c6 01                  	testb	$1, %sil
    3106: 48 89 45 90                  	movq	%rax, -112(%rbp)
    310a: 75 1e                        	jne	0x312a <.text+0x157a>
    310c: 48 8b 45 90                  	movq	-112(%rbp), %rax
    3110: 48 89 45 f8                  	movq	%rax, -8(%rbp)
    3114: 48 8b 7d a0                  	movq	-96(%rbp), %rdi
    3118: 48 8b 75 98                  	movq	-104(%rbp), %rsi
    311c: 48 89 c2                     	movq	%rax, %rdx
    311f: e8 ac 03 00 00               	callq	0x34d0 <.text+0x1920>
    3124: 48 83 c4 70                  	addq	$112, %rsp
    3128: 5d                           	popq	%rbp
    3129: c3                           	retq
    312a: 48 8d 3d cf d7 ff ff         	leaq	-10289(%rip), %rdi  # 900
    3131: 48 8d 15 f8 32 00 00         	leaq	13048(%rip), %rdx  # 6430
    3138: be 21 00 00 00               	movl	$33, %esi
    313d: e8 1e ec ff ff               	callq	0x1d60 <.text+0x1b0>
    3142: 0f 0b                        	ud2
    3144: cc                           	int3
    3145: cc                           	int3
    3146: cc                           	int3
    3147: cc                           	int3
    3148: cc                           	int3
    3149: cc                           	int3
    314a: cc                           	int3
    314b: cc                           	int3
    314c: cc                           	int3
    314d: cc                           	int3
    314e: cc                           	int3
    314f: cc                           	int3
    3150: 55                           	pushq	%rbp
    3151: 48 89 e5                     	movq	%rsp, %rbp
    3154: 48 83 ec 70                  	subq	$112, %rsp
    3158: 48 89 7d d0                  	movq	%rdi, -48(%rbp)
    315c: 48 89 75 d8                  	movq	%rsi, -40(%rbp)
    3160: 48 89 55 e0                  	movq	%rdx, -32(%rbp)
    3164: 48 89 7d c0                  	movq	%rdi, -64(%rbp)
    3168: 48 89 55 b8                  	movq	%rdx, -72(%rbp)
    316c: 48 89 75 b0                  	movq	%rsi, -80(%rbp)
    3170: e8 eb f5 ff ff               	callq	0x2760 <.text+0xbb0>
    3175: 88 45 af                     	movb	%al, -81(%rbp)
    3178: eb 61                        	jmp	0x31db <.text+0x162b>
    317a: c6 45 cd 01                  	movb	$1, -51(%rbp)
    317e: eb 04                        	jmp	0x3184 <.text+0x15d4>
    3180: c6 45 cd 00                  	movb	$0, -51(%rbp)
    3184: f6 45 cd 01                  	testb	$1, -51(%rbp)
    3188: 75 6c                        	jne	0x31f6 <.text+0x1646>
    318a: eb 6e                        	jmp	0x31fa <.text+0x164a>
    318c: c6 45 ce 01                  	movb	$1, -50(%rbp)
    3190: eb 1c                        	jmp	0x31ae <.text+0x15fe>
    3192: c6 45 ce 00                  	movb	$0, -50(%rbp)
    3196: eb 16                        	jmp	0x31ae <.text+0x15fe>
    3198: 48 8b 7d c0                  	movq	-64(%rbp), %rdi
    319c: 48 8b 75 b0                  	movq	-80(%rbp), %rsi
    31a0: 48 8b 55 b8                  	movq	-72(%rbp), %rdx
    31a4: e8 b7 f9 ff ff               	callq	0x2b60 <.text+0xfb0>
    31a9: 88 45 ae                     	movb	%al, -82(%rbp)
    31ac: eb 3f                        	jmp	0x31ed <.text+0x163d>
    31ae: 8a 45 ce                     	movb	-50(%rbp), %al
    31b1: 34 ff                        	xorb	$-1, %al
    31b3: a8 01                        	testb	$1, %al
    31b5: 75 c3                        	jne	0x317a <.text+0x15ca>
    31b7: eb c7                        	jmp	0x3180 <.text+0x15d0>
    31b9: c6 45 cf 01                  	movb	$1, -49(%rbp)
    31bd: eb 14                        	jmp	0x31d3 <.text+0x1623>
    31bf: c6 45 cf 00                  	movb	$0, -49(%rbp)
    31c3: eb 0e                        	jmp	0x31d3 <.text+0x1623>
    31c5: 48 8b 7d b0                  	movq	-80(%rbp), %rdi
    31c9: e8 92 f5 ff ff               	callq	0x2760 <.text+0xbb0>
    31ce: 88 45 ad                     	movb	%al, -83(%rbp)
    31d1: eb 11                        	jmp	0x31e4 <.text+0x1634>
    31d3: f6 45 cf 01                  	testb	$1, -49(%rbp)
    31d7: 75 bf                        	jne	0x3198 <.text+0x15e8>
    31d9: eb b7                        	jmp	0x3192 <.text+0x15e2>
    31db: 8a 45 af                     	movb	-81(%rbp), %al
    31de: a8 01                        	testb	$1, %al
    31e0: 75 e3                        	jne	0x31c5 <.text+0x1615>
    31e2: eb db                        	jmp	0x31bf <.text+0x160f>
    31e4: 8a 45 ad                     	movb	-83(%rbp), %al
    31e7: a8 01                        	testb	$1, %al
    31e9: 75 ce                        	jne	0x31b9 <.text+0x1609>
    31eb: eb d2                        	jmp	0x31bf <.text+0x160f>
    31ed: 8a 45 ae                     	movb	-82(%rbp), %al
    31f0: a8 01                        	testb	$1, %al
    31f2: 75 98                        	jne	0x318c <.text+0x15dc>
    31f4: eb 9c                        	jmp	0x3192 <.text+0x15e2>
    31f6: 0f 0b                        	ud2
    31f8: 0f 0b                        	ud2
    31fa: 48 8b 45 c0                  	movq	-64(%rbp), %rax
    31fe: 48 89 45 e8                  	movq	%rax, -24(%rbp)
    3202: 48 8b 4d b0                  	movq	-80(%rbp), %rcx
    3206: 48 89 4d f0                  	movq	%rcx, -16(%rbp)
    320a: 48 89 45 a0                  	movq	%rax, -96(%rbp)
    320e: 48 89 4d 98                  	movq	%rcx, -104(%rbp)
    3212: 48 8b 45 b8                  	movq	-72(%rbp), %rax
    3216: b9 04 00 00 00               	movl	$4, %ecx
    321b: 48 f7 e1                     	mulq	%rcx
    321e: 40 0f 90 c6                  	seto	%sil
    3222: 40 f6 c6 01                  	testb	$1, %sil
    3226: 48 89 45 90                  	movq	%rax, -112(%rbp)
    322a: 75 1e                        	jne	0x324a <.text+0x169a>
    322c: 48 8b 45 90                  	movq	-112(%rbp), %rax
    3230: 48 89 45 f8                  	movq	%rax, -8(%rbp)
    3234: 48 8b 7d a0                  	movq	-96(%rbp), %rdi
    3238: 48 8b 75 98                  	movq	-104(%rbp), %rsi
    323c: 48 89 c2                     	movq	%rax, %rdx
    323f: e8 8c 02 00 00               	callq	0x34d0 <.text+0x1920>
    3244: 48 83 c4 70                  	addq	$112, %rsp
    3248: 5d                           	popq	%rbp
    3249: c3                           	retq
    324a: 48 8d 3d af d6 ff ff         	leaq	-10577(%rip), %rdi  # 900
    3251: 48 8d 15 d8 31 00 00         	leaq	12760(%rip), %rdx  # 6430
    3258: be 21 00 00 00               	movl	$33, %esi
    325d: e8 fe ea ff ff               	callq	0x1d60 <.text+0x1b0>
    3262: 0f 0b                        	ud2
    3264: cc                           	int3
    3265: cc                           	int3
    3266: cc                           	int3
    3267: cc                           	int3
    3268: cc                           	int3
    3269: cc                           	int3
    326a: cc                           	int3
    326b: cc                           	int3
    326c: cc                           	int3
    326d: cc                           	int3
    326e: cc                           	int3
    326f: cc                           	int3
    3270: 55                           	pushq	%rbp
    3271: 48 89 e5                     	movq	%rsp, %rbp
    3274: 48 83 ec 60                  	subq	$96, %rsp
    3278: 48 89 7d d0                  	movq	%rdi, -48(%rbp)
    327c: 48 89 75 d8                  	movq	%rsi, -40(%rbp)
    3280: 48 89 55 e0                  	movq	%rdx, -32(%rbp)
    3284: 48 89 7d c0                  	movq	%rdi, -64(%rbp)
    3288: 48 89 55 b8                  	movq	%rdx, -72(%rbp)
    328c: 48 89 75 b0                  	movq	%rsi, -80(%rbp)
    3290: e8 0b f6 ff ff               	callq	0x28a0 <.text+0xcf0>
    3295: 88 45 af                     	movb	%al, -81(%rbp)
    3298: eb 61                        	jmp	0x32fb <.text+0x174b>
    329a: c6 45 cd 01                  	movb	$1, -51(%rbp)
    329e: eb 04                        	jmp	0x32a4 <.text+0x16f4>
    32a0: c6 45 cd 00                  	movb	$0, -51(%rbp)
    32a4: f6 45 cd 01                  	testb	$1, -51(%rbp)
    32a8: 75 6c                        	jne	0x3316 <.text+0x1766>
    32aa: eb 6e                        	jmp	0x331a <.text+0x176a>
    32ac: c6 45 ce 01                  	movb	$1, -50(%rbp)
    32b0: eb 1c                        	jmp	0x32ce <.text+0x171e>
    32b2: c6 45 ce 00                  	movb	$0, -50(%rbp)
    32b6: eb 16                        	jmp	0x32ce <.text+0x171e>
    32b8: 48 8b 7d c0                  	movq	-64(%rbp), %rdi
    32bc: 48 8b 75 b0                  	movq	-80(%rbp), %rsi
    32c0: 48 8b 55 b8                  	movq	-72(%rbp), %rdx
    32c4: e8 77 f6 ff ff               	callq	0x2940 <.text+0xd90>
    32c9: 88 45 ae                     	movb	%al, -82(%rbp)
    32cc: eb 3f                        	jmp	0x330d <.text+0x175d>
    32ce: 8a 45 ce                     	movb	-50(%rbp), %al
    32d1: 34 ff                        	xorb	$-1, %al
    32d3: a8 01                        	testb	$1, %al
    32d5: 75 c3                        	jne	0x329a <.text+0x16ea>
    32d7: eb c7                        	jmp	0x32a0 <.text+0x16f0>
    32d9: c6 45 cf 01                  	movb	$1, -49(%rbp)
    32dd: eb 14                        	jmp	0x32f3 <.text+0x1743>
    32df: c6 45 cf 00                  	movb	$0, -49(%rbp)
    32e3: eb 0e                        	jmp	0x32f3 <.text+0x1743>
    32e5: 48 8b 7d b0                  	movq	-80(%rbp), %rdi
    32e9: e8 b2 f5 ff ff               	callq	0x28a0 <.text+0xcf0>
    32ee: 88 45 ad                     	movb	%al, -83(%rbp)
    32f1: eb 11                        	jmp	0x3304 <.text+0x1754>
    32f3: f6 45 cf 01                  	testb	$1, -49(%rbp)
    32f7: 75 bf                        	jne	0x32b8 <.text+0x1708>
    32f9: eb b7                        	jmp	0x32b2 <.text+0x1702>
    32fb: 8a 45 af                     	movb	-81(%rbp), %al
    32fe: a8 01                        	testb	$1, %al
    3300: 75 e3                        	jne	0x32e5 <.text+0x1735>
    3302: eb db                        	jmp	0x32df <.text+0x172f>
    3304: 8a 45 ad                     	movb	-83(%rbp), %al
    3307: a8 01                        	testb	$1, %al
    3309: 75 ce                        	jne	0x32d9 <.text+0x1729>
    330b: eb d2                        	jmp	0x32df <.text+0x172f>
    330d: 8a 45 ae                     	movb	-82(%rbp), %al
    3310: a8 01                        	testb	$1, %al
    3312: 75 98                        	jne	0x32ac <.text+0x16fc>
    3314: eb 9c                        	jmp	0x32b2 <.text+0x1702>
    3316: 0f 0b                        	ud2
    3318: 0f 0b                        	ud2
    331a: 48 8b 45 c0                  	movq	-64(%rbp), %rax
    331e: 48 89 45 e8                  	movq	%rax, -24(%rbp)
    3322: 48 8b 4d b0                  	movq	-80(%rbp), %rcx
    3326: 48 89 4d f0                  	movq	%rcx, -16(%rbp)
    332a: 48 8b 45 b8                  	movq	-72(%rbp), %rax
    332e: b9 01 00 00 00               	movl	$1, %ecx
    3333: 48 f7 e1                     	mulq	%rcx
    3336: 40 0f 90 c6                  	seto	%sil
    333a: 40 f6 c6 01                  	testb	$1, %sil
    333e: 48 89 45 a0                  	movq	%rax, -96(%rbp)
    3342: 75 1e                        	jne	0x3362 <.text+0x17b2>
    3344: 48 8b 45 a0                  	movq	-96(%rbp), %rax
    3348: 48 89 45 f8                  	movq	%rax, -8(%rbp)
    334c: 48 8b 7d c0                  	movq	-64(%rbp), %rdi
    3350: 48 8b 75 b0                  	movq	-80(%rbp), %rsi
    3354: 48 89 c2                     	movq	%rax, %rdx
    3357: e8 74 01 00 00               	callq	0x34d0 <.text+0x1920>
    335c: 48 83 c4 60                  	addq	$96, %rsp
    3360: 5d                           	popq	%rbp
    3361: c3                           	retq
    3362: 48 8d 3d 97 d5 ff ff         	leaq	-10857(%rip), %rdi  # 900
    3369: 48 8d 15 c0 30 00 00         	leaq	12480(%rip), %rdx  # 6430
    3370: be 21 00 00 00               	movl	$33, %esi
    3375: e8 e6 e9 ff ff               	callq	0x1d60 <.text+0x1b0>
    337a: 0f 0b                        	ud2
    337c: cc                           	int3
    337d: cc                           	int3
    337e: cc                           	int3
    337f: cc                           	int3
    3380: 55                           	pushq	%rbp
    3381: 48 89 e5                     	movq	%rsp, %rbp
    3384: 48 83 ec 40                  	subq	$64, %rsp
    3388: 48 89 7d e8                  	movq	%rdi, -24(%rbp)
    338c: 48 89 75 f0                  	movq	%rsi, -16(%rbp)
    3390: 48 89 75 d8                  	movq	%rsi, -40(%rbp)
    3394: 48 89 7d d0                  	movq	%rdi, -48(%rbp)
    3398: b8 01 00 00 00               	movl	$1, %eax
    339d: 48 83 f8 20                  	cmpq	$32, %rax
    33a1: 73 11                        	jae	0x33b4 <.text+0x1804>
    33a3: 48 8b 7d d0                  	movq	-48(%rbp), %rdi
    33a7: e8 14 04 00 00               	callq	0x37c0 <.text+0x1c10>
    33ac: 88 45 ff                     	movb	%al, -1(%rbp)
    33af: 88 45 cf                     	movb	%al, -49(%rbp)
    33b2: eb 14                        	jmp	0x33c8 <.text+0x1818>
    33b4: 48 8b 7d d0                  	movq	-48(%rbp), %rdi
    33b8: 48 8b 75 d8                  	movq	-40(%rbp), %rsi
    33bc: ba 01 00 00 00               	movl	$1, %edx
    33c1: e8 aa fe ff ff               	callq	0x3270 <.text+0x16c0>
    33c6: eb 1d                        	jmp	0x33e5 <.text+0x1835>
    33c8: 48 8b 45 d8                  	movq	-40(%rbp), %rax
    33cc: 8a 08                        	movb	(%rax), %cl
    33ce: 48 8b 55 d0                  	movq	-48(%rbp), %rdx
    33d2: 88 0a                        	movb	%cl, (%rdx)
    33d4: 48 8b 7d d8                  	movq	-40(%rbp), %rdi
    33d8: 8a 45 cf                     	movb	-49(%rbp), %al
    33db: 0f b6 f0                     	movzbl	%al, %esi
    33de: e8 7d 04 00 00               	callq	0x3860 <.text+0x1cb0>
    33e3: eb 02                        	jmp	0x33e7 <.text+0x1837>
    33e5: eb 00                        	jmp	0x33e7 <.text+0x1837>
    33e7: 48 83 c4 40                  	addq	$64, %rsp
    33eb: 5d                           	popq	%rbp
    33ec: c3                           	retq
    33ed: cc                           	int3
    33ee: cc                           	int3
    33ef: cc                           	int3
    33f0: 55                           	pushq	%rbp
    33f1: 48 89 e5                     	movq	%rsp, %rbp
    33f4: 48 83 ec 40                  	subq	$64, %rsp
    33f8: 48 89 7d e8                  	movq	%rdi, -24(%rbp)
    33fc: 48 89 75 f0                  	movq	%rsi, -16(%rbp)
    3400: 48 89 75 d8                  	movq	%rsi, -40(%rbp)
    3404: 48 89 7d d0                  	movq	%rdi, -48(%rbp)
    3408: b8 04 00 00 00               	movl	$4, %eax
    340d: 48 83 f8 20                  	cmpq	$32, %rax
    3411: 73 11                        	jae	0x3424 <.text+0x1874>
    3413: 48 8b 7d d0                  	movq	-48(%rbp), %rdi
    3417: e8 e4 03 00 00               	callq	0x3800 <.text+0x1c50>
    341c: 89 45 fc                     	movl	%eax, -4(%rbp)
    341f: 89 45 cc                     	movl	%eax, -52(%rbp)
    3422: eb 14                        	jmp	0x3438 <.text+0x1888>
    3424: 48 8b 7d d0                  	movq	-48(%rbp), %rdi
    3428: 48 8b 75 d8                  	movq	-40(%rbp), %rsi
    342c: ba 01 00 00 00               	movl	$1, %edx
    3431: e8 1a fd ff ff               	callq	0x3150 <.text+0x15a0>
    3436: eb 1a                        	jmp	0x3452 <.text+0x18a2>
    3438: 48 8b 45 d8                  	movq	-40(%rbp), %rax
    343c: 8b 08                        	movl	(%rax), %ecx
    343e: 48 8b 55 d0                  	movq	-48(%rbp), %rdx
    3442: 89 0a                        	movl	%ecx, (%rdx)
    3444: 48 8b 7d d8                  	movq	-40(%rbp), %rdi
    3448: 8b 75 cc                     	movl	-52(%rbp), %esi
    344b: e8 f0 03 00 00               	callq	0x3840 <.text+0x1c90>
    3450: eb 02                        	jmp	0x3454 <.text+0x18a4>
    3452: eb 00                        	jmp	0x3454 <.text+0x18a4>
    3454: 48 83 c4 40                  	addq	$64, %rsp
    3458: 5d                           	popq	%rbp
    3459: c3                           	retq
    345a: cc                           	int3
    345b: cc                           	int3
    345c: cc                           	int3
    345d: cc                           	int3
    345e: cc                           	int3
    345f: cc                           	int3
    3460: 55                           	pushq	%rbp
    3461: 48 89 e5                     	movq	%rsp, %rbp
    3464: 48 83 ec 40                  	subq	$64, %rsp
    3468: 48 89 7d e8                  	movq	%rdi, -24(%rbp)
    346c: 48 89 75 f0                  	movq	%rsi, -16(%rbp)
    3470: 48 89 75 d8                  	movq	%rsi, -40(%rbp)
    3474: 48 89 7d d0                  	movq	%rdi, -48(%rbp)
    3478: b8 08 00 00 00               	movl	$8, %eax
    347d: 48 83 f8 20                  	cmpq	$32, %rax
    3481: 73 13                        	jae	0x3496 <.text+0x18e6>
    3483: 48 8b 7d d0                  	movq	-48(%rbp), %rdi
    3487: e8 e4 02 00 00               	callq	0x3770 <.text+0x1bc0>
    348c: 48 89 45 f8                  	movq	%rax, -8(%rbp)
    3490: 48 89 45 c8                  	movq	%rax, -56(%rbp)
    3494: eb 14                        	jmp	0x34aa <.text+0x18fa>
    3496: 48 8b 7d d0                  	movq	-48(%rbp), %rdi
    349a: 48 8b 75 d8                  	movq	-40(%rbp), %rsi
    349e: ba 01 00 00 00               	movl	$1, %edx
    34a3: e8 88 fb ff ff               	callq	0x3030 <.text+0x1480>
    34a8: eb 1d                        	jmp	0x34c7 <.text+0x1917>
    34aa: 48 8b 45 d8                  	movq	-40(%rbp), %rax
    34ae: 48 8b 08                     	movq	(%rax), %rcx
    34b1: 48 8b 55 d0                  	movq	-48(%rbp), %rdx
    34b5: 48 89 0a                     	movq	%rcx, (%rdx)
    34b8: 48 8b 7d d8                  	movq	-40(%rbp), %rdi
    34bc: 48 8b 75 c8                  	movq	-56(%rbp), %rsi
    34c0: e8 bb 03 00 00               	callq	0x3880 <.text+0x1cd0>
    34c5: eb 02                        	jmp	0x34c9 <.text+0x1919>
    34c7: eb 00                        	jmp	0x34c9 <.text+0x1919>
    34c9: 48 83 c4 40                  	addq	$64, %rsp
    34cd: 5d                           	popq	%rbp
    34ce: c3                           	retq
    34cf: cc                           	int3
    34d0: 55                           	pushq	%rbp
    34d1: 48 89 e5                     	movq	%rsp, %rbp
    34d4: 48 83 e4 e0                  	andq	$-32, %rsp
    34d8: 48 81 ec 40 01 00 00         	subq	$320, %rsp
    34df: 48 89 bc 24 c8 00 00 00      	movq	%rdi, 200(%rsp)
    34e7: 48 89 b4 24 d0 00 00 00      	movq	%rsi, 208(%rsp)
    34ef: 48 89 94 24 d8 00 00 00      	movq	%rdx, 216(%rsp)
    34f7: 48 c7 84 24 e0 00 00 00 20 00 00 00  	movq	$32, 224(%rsp)
    3503: 48 89 54 24 68               	movq	%rdx, 104(%rsp)
    3508: 48 89 74 24 60               	movq	%rsi, 96(%rsp)
    350d: 48 89 7c 24 58               	movq	%rdi, 88(%rsp)
    3512: 48 c7 44 24 78 00 00 00 00   	movq	$0, 120(%rsp)
    351b: 48 8b 44 24 78               	movq	120(%rsp), %rax
    3520: 48 05 20 00 00 00            	addq	$32, %rax
    3526: 0f 92 c1                     	setb	%cl
    3529: f6 c1 01                     	testb	$1, %cl
    352c: 48 89 44 24 50               	movq	%rax, 80(%rsp)
    3531: 0f 85 e3 01 00 00            	jne	0x371a <.text+0x1b6a>
    3537: 48 8b 44 24 50               	movq	80(%rsp), %rax
    353c: 48 8b 4c 24 68               	movq	104(%rsp), %rcx
    3541: 48 39 c8                     	cmpq	%rcx, %rax
    3544: 76 15                        	jbe	0x355b <.text+0x19ab>
    3546: 48 8b 44 24 68               	movq	104(%rsp), %rax
    354b: 48 39 44 24 78               	cmpq	%rax, 120(%rsp)
    3550: 0f 82 de 00 00 00            	jb	0x3634 <.text+0x1a84>
    3556: e9 db 00 00 00               	jmp	0x3636 <.text+0x1a86>
    355b: 48 8d 84 24 80 00 00 00      	leaq	128(%rsp), %rax
    3563: 48 89 84 24 28 01 00 00      	movq	%rax, 296(%rsp)
    356b: 48 8d 84 24 80 00 00 00      	leaq	128(%rsp), %rax
    3573: 48 89 84 24 e8 00 00 00      	movq	%rax, 232(%rsp)
    357b: 48 8b 74 24 78               	movq	120(%rsp), %rsi
    3580: 48 8b 7c 24 58               	movq	88(%rsp), %rdi
    3585: 48 89 44 24 48               	movq	%rax, 72(%rsp)
    358a: e8 d1 07 00 00               	callq	0x3d60 <.text+0x21b0>
    358f: 48 89 84 24 f0 00 00 00      	movq	%rax, 240(%rsp)
    3597: 48 89 44 24 40               	movq	%rax, 64(%rsp)
    359c: 48 8b 74 24 78               	movq	120(%rsp), %rsi
    35a1: 48 8b 7c 24 60               	movq	96(%rsp), %rdi
    35a6: e8 b5 07 00 00               	callq	0x3d60 <.text+0x21b0>
    35ab: 48 89 84 24 f8 00 00 00      	movq	%rax, 248(%rsp)
    35b3: 48 89 44 24 38               	movq	%rax, 56(%rsp)
    35b8: b8 20 00 00 00               	movl	$32, %eax
    35bd: 48 c1 e0 00                  	shlq	$0, %rax
    35c1: 48 8b 7c 24 48               	movq	72(%rsp), %rdi
    35c6: 48 8b 74 24 40               	movq	64(%rsp), %rsi
    35cb: 48 89 c2                     	movq	%rax, %rdx
    35ce: e8 4d 1c 00 00               	callq	0x5220 <.text+0x3670>
    35d3: b8 20 00 00 00               	movl	$32, %eax
    35d8: 48 c1 e0 00                  	shlq	$0, %rax
    35dc: 48 8b 7c 24 40               	movq	64(%rsp), %rdi
    35e1: 48 8b 74 24 38               	movq	56(%rsp), %rsi
    35e6: 48 89 c2                     	movq	%rax, %rdx
    35e9: e8 32 1c 00 00               	callq	0x5220 <.text+0x3670>
    35ee: b8 20 00 00 00               	movl	$32, %eax
    35f3: 48 c1 e0 00                  	shlq	$0, %rax
    35f7: 48 8b 7c 24 38               	movq	56(%rsp), %rdi
    35fc: 48 8b 74 24 48               	movq	72(%rsp), %rsi
    3601: 48 89 c2                     	movq	%rax, %rdx
    3604: e8 17 1c 00 00               	callq	0x5220 <.text+0x3670>
    3609: 48 8b 44 24 78               	movq	120(%rsp), %rax
    360e: 48 05 20 00 00 00            	addq	$32, %rax
    3614: 0f 92 c1                     	setb	%cl
    3617: f6 c1 01                     	testb	$1, %cl
    361a: 48 89 44 24 30               	movq	%rax, 48(%rsp)
    361f: 0f 85 0f 01 00 00            	jne	0x3734 <.text+0x1b84>
    3625: 48 8b 44 24 30               	movq	48(%rsp), %rax
    362a: 48 89 44 24 78               	movq	%rax, 120(%rsp)
    362f: e9 e7 fe ff ff               	jmp	0x351b <.text+0x196b>
    3634: eb 05                        	jmp	0x363b <.text+0x1a8b>
    3636: e9 da 00 00 00               	jmp	0x3715 <.text+0x1b65>
    363b: 48 8b 44 24 68               	movq	104(%rsp), %rax
    3640: 48 2b 44 24 78               	subq	120(%rsp), %rax
    3645: 0f 92 c1                     	setb	%cl
    3648: f6 c1 01                     	testb	$1, %cl
    364b: 48 89 44 24 28               	movq	%rax, 40(%rsp)
    3650: 0f 85 f8 00 00 00            	jne	0x374e <.text+0x1b9e>
    3656: 48 8b 44 24 28               	movq	40(%rsp), %rax
    365b: 48 89 84 24 00 01 00 00      	movq	%rax, 256(%rsp)
    3663: 48 8d 8c 24 a8 00 00 00      	leaq	168(%rsp), %rcx
    366b: 48 89 8c 24 20 01 00 00      	movq	%rcx, 288(%rsp)
    3673: 48 89 4c 24 20               	movq	%rcx, 32(%rsp)
    3678: 48 8b 44 24 20               	movq	32(%rsp), %rax
    367d: 48 89 84 24 08 01 00 00      	movq	%rax, 264(%rsp)
    3685: 48 8b 74 24 78               	movq	120(%rsp), %rsi
    368a: 48 8b 7c 24 58               	movq	88(%rsp), %rdi
    368f: 48 89 44 24 18               	movq	%rax, 24(%rsp)
    3694: e8 c7 06 00 00               	callq	0x3d60 <.text+0x21b0>
    3699: 48 89 84 24 10 01 00 00      	movq	%rax, 272(%rsp)
    36a1: 48 89 44 24 10               	movq	%rax, 16(%rsp)
    36a6: 48 8b 74 24 78               	movq	120(%rsp), %rsi
    36ab: 48 8b 7c 24 60               	movq	96(%rsp), %rdi
    36b0: e8 ab 06 00 00               	callq	0x3d60 <.text+0x21b0>
    36b5: 48 89 84 24 18 01 00 00      	movq	%rax, 280(%rsp)
    36bd: 48 89 44 24 08               	movq	%rax, 8(%rsp)
    36c2: 48 8b 44 24 28               	movq	40(%rsp), %rax
    36c7: 48 c1 e0 00                  	shlq	$0, %rax
    36cb: 48 8b 7c 24 18               	movq	24(%rsp), %rdi
    36d0: 48 8b 74 24 10               	movq	16(%rsp), %rsi
    36d5: 48 89 c2                     	movq	%rax, %rdx
    36d8: e8 43 1b 00 00               	callq	0x5220 <.text+0x3670>
    36dd: 48 8b 44 24 28               	movq	40(%rsp), %rax
    36e2: 48 c1 e0 00                  	shlq	$0, %rax
    36e6: 48 8b 7c 24 10               	movq	16(%rsp), %rdi
    36eb: 48 8b 74 24 08               	movq	8(%rsp), %rsi
    36f0: 48 89 c2                     	movq	%rax, %rdx
    36f3: e8 28 1b 00 00               	callq	0x5220 <.text+0x3670>
    36f8: 48 8b 44 24 28               	movq	40(%rsp), %rax
    36fd: 48 c1 e0 00                  	shlq	$0, %rax
    3701: 48 8b 7c 24 08               	movq	8(%rsp), %rdi
    3706: 48 8b 74 24 18               	movq	24(%rsp), %rsi
    370b: 48 89 c2                     	movq	%rax, %rdx
    370e: e8 0d 1b 00 00               	callq	0x5220 <.text+0x3670>
    3713: eb 00                        	jmp	0x3715 <.text+0x1b65>
    3715: 48 89 ec                     	movq	%rbp, %rsp
    3718: 5d                           	popq	%rbp
    3719: c3                           	retq
    371a: 48 8d 3d 0f d2 ff ff         	leaq	-11761(%rip), %rdi  # 930
    3721: 48 8d 15 20 2d 00 00         	leaq	11552(%rip), %rdx  # 6448
    3728: be 1c 00 00 00               	movl	$28, %esi
    372d: e8 2e e6 ff ff               	callq	0x1d60 <.text+0x1b0>
    3732: 0f 0b                        	ud2
    3734: 48 8d 3d f5 d1 ff ff         	leaq	-11787(%rip), %rdi  # 930
    373b: 48 8d 15 1e 2d 00 00         	leaq	11550(%rip), %rdx  # 6460
    3742: be 1c 00 00 00               	movl	$28, %esi
    3747: e8 14 e6 ff ff               	callq	0x1d60 <.text+0x1b0>
    374c: 0f 0b                        	ud2
    374e: 48 8d 3d fb d1 ff ff         	leaq	-11781(%rip), %rdi  # 950
    3755: 48 8d 15 1c 2d 00 00         	leaq	11548(%rip), %rdx  # 6478
    375c: be 21 00 00 00               	movl	$33, %esi
    3761: e8 fa e5 ff ff               	callq	0x1d60 <.text+0x1b0>
    3766: 0f 0b                        	ud2
    3768: cc                           	int3
    3769: cc                           	int3
    376a: cc                           	int3
    376b: cc                           	int3
    376c: cc                           	int3
    376d: cc                           	int3
    376e: cc                           	int3
    376f: cc                           	int3
    3770: 55                           	pushq	%rbp
    3771: 48 89 e5                     	movq	%rsp, %rbp
    3774: 48 83 ec 40                  	subq	$64, %rsp
    3778: 48 89 7d d8                  	movq	%rdi, -40(%rbp)
    377c: 48 8b 45 e0                  	movq	-32(%rbp), %rax
    3780: 48 89 45 d0                  	movq	%rax, -48(%rbp)
    3784: 48 89 7d c8                  	movq	%rdi, -56(%rbp)
    3788: 48 8d 45 d0                  	leaq	-48(%rbp), %rax
    378c: 48 89 45 f8                  	movq	%rax, -8(%rbp)
    3790: 48 8b 45 c8                  	movq	-56(%rbp), %rax
    3794: 48 8b 08                     	movq	(%rax), %rcx
    3797: 48 89 4d d0                  	movq	%rcx, -48(%rbp)
    379b: 48 8b 45 d0                  	movq	-48(%rbp), %rax
    379f: 48 89 45 e8                  	movq	%rax, -24(%rbp)
    37a3: 48 89 45 f0                  	movq	%rax, -16(%rbp)
    37a7: 48 89 45 c0                  	movq	%rax, -64(%rbp)
    37ab: 48 8b 45 c0                  	movq	-64(%rbp), %rax
    37af: 48 83 c4 40                  	addq	$64, %rsp
    37b3: 5d                           	popq	%rbp
    37b4: c3                           	retq
    37b5: cc                           	int3
    37b6: cc                           	int3
    37b7: cc                           	int3
    37b8: cc                           	int3
    37b9: cc                           	int3
    37ba: cc                           	int3
    37bb: cc                           	int3
    37bc: cc                           	int3
    37bd: cc                           	int3
    37be: cc                           	int3
    37bf: cc                           	int3
    37c0: 55                           	pushq	%rbp
    37c1: 48 89 e5                     	movq	%rsp, %rbp
    37c4: 48 83 ec 30                  	subq	$48, %rsp
    37c8: 48 89 7d e8                  	movq	%rdi, -24(%rbp)
    37cc: 8a 45 f5                     	movb	-11(%rbp), %al
    37cf: 88 45 e7                     	movb	%al, -25(%rbp)
    37d2: 48 89 7d d8                  	movq	%rdi, -40(%rbp)
    37d6: 48 8d 45 e7                  	leaq	-25(%rbp), %rax
    37da: 48 89 45 f8                  	movq	%rax, -8(%rbp)
    37de: 48 8b 45 d8                  	movq	-40(%rbp), %rax
    37e2: 8a 08                        	movb	(%rax), %cl
    37e4: 88 4d e7                     	movb	%cl, -25(%rbp)
    37e7: 8a 45 e7                     	movb	-25(%rbp), %al
    37ea: 88 45 f6                     	movb	%al, -10(%rbp)
    37ed: 88 45 f7                     	movb	%al, -9(%rbp)
    37f0: 88 45 d7                     	movb	%al, -41(%rbp)
    37f3: 8a 45 d7                     	movb	-41(%rbp), %al
    37f6: 48 83 c4 30                  	addq	$48, %rsp
    37fa: 5d                           	popq	%rbp
    37fb: c3                           	retq
    37fc: cc                           	int3
    37fd: cc                           	int3
    37fe: cc                           	int3
    37ff: cc                           	int3
    3800: 55                           	pushq	%rbp
    3801: 48 89 e5                     	movq	%rsp, %rbp
    3804: 48 83 ec 38                  	subq	$56, %rsp
    3808: 48 89 7d e0                  	movq	%rdi, -32(%rbp)
    380c: 8b 45 ec                     	movl	-20(%rbp), %eax
    380f: 89 45 dc                     	movl	%eax, -36(%rbp)
    3812: 48 89 7d d0                  	movq	%rdi, -48(%rbp)
    3816: 48 8d 45 dc                  	leaq	-36(%rbp), %rax
    381a: 48 89 45 f8                  	movq	%rax, -8(%rbp)
    381e: 48 8b 45 d0                  	movq	-48(%rbp), %rax
    3822: 8b 08                        	movl	(%rax), %ecx
    3824: 89 4d dc                     	movl	%ecx, -36(%rbp)
    3827: 8b 45 dc                     	movl	-36(%rbp), %eax
    382a: 89 45 f0                     	movl	%eax, -16(%rbp)
    382d: 89 45 f4                     	movl	%eax, -12(%rbp)
    3830: 89 45 cc                     	movl	%eax, -52(%rbp)
    3833: 8b 45 cc                     	movl	-52(%rbp), %eax
    3836: 48 83 c4 38                  	addq	$56, %rsp
    383a: 5d                           	popq	%rbp
    383b: c3                           	retq
    383c: cc                           	int3
    383d: cc                           	int3
    383e: cc                           	int3
    383f: cc                           	int3
    3840: 55                           	pushq	%rbp
    3841: 48 89 e5                     	movq	%rsp, %rbp
    3844: 48 83 ec 10                  	subq	$16, %rsp
    3848: 89 75 f4                     	movl	%esi, -12(%rbp)
    384b: 48 89 7d f8                  	movq	%rdi, -8(%rbp)
    384f: 8b 45 f4                     	movl	-12(%rbp), %eax
    3852: 89 07                        	movl	%eax, (%rdi)
    3854: 48 83 c4 10                  	addq	$16, %rsp
    3858: 5d                           	popq	%rbp
    3859: c3                           	retq
    385a: cc                           	int3
    385b: cc                           	int3
    385c: cc                           	int3
    385d: cc                           	int3
    385e: cc                           	int3
    385f: cc                           	int3
    3860: 55                           	pushq	%rbp
    3861: 48 89 e5                     	movq	%rsp, %rbp
    3864: 48 83 ec 10                  	subq	$16, %rsp
    3868: 40 88 75 f7                  	movb	%sil, -9(%rbp)
    386c: 48 89 7d f8                  	movq	%rdi, -8(%rbp)
    3870: 8a 45 f7                     	movb	-9(%rbp), %al
    3873: 88 07                        	movb	%al, (%rdi)
    3875: 48 83 c4 10                  	addq	$16, %rsp
    3879: 5d                           	popq	%rbp
    387a: c3                           	retq
    387b: cc                           	int3
    387c: cc                           	int3
    387d: cc                           	int3
    387e: cc                           	int3
    387f: cc                           	int3
    3880: 55                           	pushq	%rbp
    3881: 48 89 e5                     	movq	%rsp, %rbp
    3884: 48 83 ec 10                  	subq	$16, %rsp
    3888: 48 89 75 f0                  	movq	%rsi, -16(%rbp)
    388c: 48 89 7d f8                  	movq	%rdi, -8(%rbp)
    3890: 48 8b 45 f0                  	movq	-16(%rbp), %rax
    3894: 48 89 07                     	movq	%rax, (%rdi)
    3897: 48 83 c4 10                  	addq	$16, %rsp
    389b: 5d                           	popq	%rbp
    389c: c3                           	retq
    389d: cc                           	int3
    389e: cc                           	int3
    389f: cc                           	int3
    38a0: 55                           	pushq	%rbp
    38a1: 48 89 e5                     	movq	%rsp, %rbp
    38a4: 48 83 ec 01                  	subq	$1, %rsp
    38a8: 40 88 7d ff                  	movb	%dil, -1(%rbp)
    38ac: 40 80 e7 c0                  	andb	$-64, %dil
    38b0: 40 80 ff 80                  	cmpb	$-128, %dil
    38b4: 0f 94 c0                     	sete	%al
    38b7: 24 01                        	andb	$1, %al
    38b9: 0f b6 c0                     	movzbl	%al, %eax
    38bc: 48 83 c4 01                  	addq	$1, %rsp
    38c0: 5d                           	popq	%rbp
    38c1: c3                           	retq
    38c2: cc                           	int3
    38c3: cc                           	int3
    38c4: cc                           	int3
    38c5: cc                           	int3
    38c6: cc                           	int3
    38c7: cc                           	int3
    38c8: cc                           	int3
    38c9: cc                           	int3
    38ca: cc                           	int3
    38cb: cc                           	int3
    38cc: cc                           	int3
    38cd: cc                           	int3
    38ce: cc                           	int3
    38cf: cc                           	int3
    38d0: 55                           	pushq	%rbp
    38d1: 48 89 e5                     	movq	%rsp, %rbp
    38d4: 50                           	pushq	%rax
    38d5: 48 89 7d f8                  	movq	%rdi, -8(%rbp)
    38d9: 48 8b 07                     	movq	(%rdi), %rax
    38dc: 48 83 c4 08                  	addq	$8, %rsp
    38e0: 5d                           	popq	%rbp
    38e1: c3                           	retq
    38e2: cc                           	int3
    38e3: cc                           	int3
    38e4: cc                           	int3
    38e5: cc                           	int3
    38e6: cc                           	int3
    38e7: cc                           	int3
    38e8: cc                           	int3
    38e9: cc                           	int3
    38ea: cc                           	int3
    38eb: cc                           	int3
    38ec: cc                           	int3
    38ed: cc                           	int3
    38ee: cc                           	int3
    38ef: cc                           	int3
    38f0: 55                           	pushq	%rbp
    38f1: 48 89 e5                     	movq	%rsp, %rbp
    38f4: 48 83 ec 20                  	subq	$32, %rsp
    38f8: 31 c0                        	xorl	%eax, %eax
    38fa: 89 c2                        	movl	%eax, %edx
    38fc: 48 89 7d f0                  	movq	%rdi, -16(%rbp)
    3900: 48 89 75 f8                  	movq	%rsi, -8(%rbp)
    3904: e8 37 f4 ff ff               	callq	0x2d40 <.text+0x1190>
    3909: 48 89 45 e0                  	movq	%rax, -32(%rbp)
    390d: 48 8b 45 e0                  	movq	-32(%rbp), %rax
    3911: 48 83 c4 20                  	addq	$32, %rsp
    3915: 5d                           	popq	%rbp
    3916: c3                           	retq
    3917: cc                           	int3
    3918: cc                           	int3
    3919: cc                           	int3
    391a: cc                           	int3
    391b: cc                           	int3
    391c: cc                           	int3
    391d: cc                           	int3
    391e: cc                           	int3
    391f: cc                           	int3
    3920: 55                           	pushq	%rbp
    3921: 48 89 e5                     	movq	%rsp, %rbp
    3924: 48 83 ec 20                  	subq	$32, %rsp
    3928: 48 89 7d e8                  	movq	%rdi, -24(%rbp)
    392c: 48 89 75 f0                  	movq	%rsi, -16(%rbp)
    3930: 48 89 55 f8                  	movq	%rdx, -8(%rbp)
    3934: 48 01 d6                     	addq	%rdx, %rsi
    3937: 0f 92 c0                     	setb	%al
    393a: a8 01                        	testb	$1, %al
    393c: 48 89 75 e0                  	movq	%rsi, -32(%rbp)
    3940: 75 0a                        	jne	0x394c <.text+0x1d9c>
    3942: 48 8b 45 e0                  	movq	-32(%rbp), %rax
    3946: 48 83 c4 20                  	addq	$32, %rsp
    394a: 5d                           	popq	%rbp
    394b: c3                           	retq
    394c: 48 8d 3d 2d d0 ff ff         	leaq	-12243(%rip), %rdi  # 980
    3953: 48 8d 15 36 2b 00 00         	leaq	11062(%rip), %rdx  # 6490
    395a: be 1c 00 00 00               	movl	$28, %esi
    395f: e8 fc e3 ff ff               	callq	0x1d60 <.text+0x1b0>
    3964: 0f 0b                        	ud2
    3966: cc                           	int3
    3967: cc                           	int3
    3968: cc                           	int3
    3969: cc                           	int3
    396a: cc                           	int3
    396b: cc                           	int3
    396c: cc                           	int3
    396d: cc                           	int3
    396e: cc                           	int3
    396f: cc                           	int3
    3970: 55                           	pushq	%rbp
    3971: 48 89 e5                     	movq	%rsp, %rbp
    3974: 48 83 ec 20                  	subq	$32, %rsp
    3978: 48 89 7d f0                  	movq	%rdi, -16(%rbp)
    397c: 48 89 75 f8                  	movq	%rsi, -8(%rbp)
    3980: 48 89 7d e0                  	movq	%rdi, -32(%rbp)
    3984: 48 89 75 e8                  	movq	%rsi, -24(%rbp)
    3988: 48 8b 45 e8                  	movq	-24(%rbp), %rax
    398c: 48 83 c4 20                  	addq	$32, %rsp
    3990: 5d                           	popq	%rbp
    3991: c3                           	retq
    3992: cc                           	int3
    3993: cc                           	int3
    3994: cc                           	int3
    3995: cc                           	int3
    3996: cc                           	int3
    3997: cc                           	int3
    3998: cc                           	int3
    3999: cc                           	int3
    399a: cc                           	int3
    399b: cc                           	int3
    399c: cc                           	int3
    399d: cc                           	int3
    399e: cc                           	int3
    399f: cc                           	int3
    39a0: 55                           	pushq	%rbp
    39a1: 48 89 e5                     	movq	%rsp, %rbp
    39a4: 48 83 ec 10                  	subq	$16, %rsp
    39a8: 48 89 7d f0                  	movq	%rdi, -16(%rbp)
    39ac: 48 89 75 f8                  	movq	%rsi, -8(%rbp)
    39b0: 48 89 f8                     	movq	%rdi, %rax
    39b3: 48 83 c4 10                  	addq	$16, %rsp
    39b7: 5d                           	popq	%rbp
    39b8: c3                           	retq
    39b9: cc                           	int3
    39ba: cc                           	int3
    39bb: cc                           	int3
    39bc: cc                           	int3
    39bd: cc                           	int3
    39be: cc                           	int3
    39bf: cc                           	int3
    39c0: 55                           	pushq	%rbp
    39c1: 48 89 e5                     	movq	%rsp, %rbp
    39c4: 48 83 ec 10                  	subq	$16, %rsp
    39c8: 48 89 7d f0                  	movq	%rdi, -16(%rbp)
    39cc: 48 89 75 f8                  	movq	%rsi, -8(%rbp)
    39d0: 48 8b 07                     	movq	(%rdi), %rax
    39d3: 48 3b 06                     	cmpq	(%rsi), %rax
    39d6: 0f 92 c1                     	setb	%cl
    39d9: 80 e1 01                     	andb	$1, %cl
    39dc: 0f b6 c1                     	movzbl	%cl, %eax
    39df: 48 83 c4 10                  	addq	$16, %rsp
    39e3: 5d                           	popq	%rbp
    39e4: c3                           	retq
    39e5: cc                           	int3
    39e6: cc                           	int3
    39e7: cc                           	int3
    39e8: cc                           	int3
    39e9: cc                           	int3
    39ea: cc                           	int3
    39eb: cc                           	int3
    39ec: cc                           	int3
    39ed: cc                           	int3
    39ee: cc                           	int3
    39ef: cc                           	int3
    39f0: 55                           	pushq	%rbp
    39f1: 48 89 e5                     	movq	%rsp, %rbp
    39f4: 48 83 ec 10                  	subq	$16, %rsp
    39f8: 48 89 7d f0                  	movq	%rdi, -16(%rbp)
    39fc: 48 89 75 f8                  	movq	%rsi, -8(%rbp)
    3a00: 48 01 f7                     	addq	%rsi, %rdi
    3a03: 48 89 f8                     	movq	%rdi, %rax
    3a06: 48 83 c4 10                  	addq	$16, %rsp
    3a0a: 5d                           	popq	%rbp
    3a0b: c3                           	retq
    3a0c: cc                           	int3
    3a0d: cc                           	int3
    3a0e: cc                           	int3
    3a0f: cc                           	int3
    3a10: 55                           	pushq	%rbp
    3a11: 48 89 e5                     	movq	%rsp, %rbp
    3a14: 48 83 ec 20                  	subq	$32, %rsp
    3a18: 48 89 7d e8                  	movq	%rdi, -24(%rbp)
    3a1c: 48 89 75 f0                  	movq	%rsi, -16(%rbp)
    3a20: 48 01 f7                     	addq	%rsi, %rdi
    3a23: 48 89 7d f8                  	movq	%rdi, -8(%rbp)
    3a27: 48 8b 45 f8                  	movq	-8(%rbp), %rax
    3a2b: 48 89 45 e0                  	movq	%rax, -32(%rbp)
    3a2f: 48 8b 45 e0                  	movq	-32(%rbp), %rax
    3a33: 48 83 c4 20                  	addq	$32, %rsp
    3a37: 5d                           	popq	%rbp
    3a38: c3                           	retq
    3a39: cc                           	int3
    3a3a: cc                           	int3
    3a3b: cc                           	int3
    3a3c: cc                           	int3
    3a3d: cc                           	int3
    3a3e: cc                           	int3
    3a3f: cc                           	int3
    3a40: 55                           	pushq	%rbp
    3a41: 48 89 e5                     	movq	%rsp, %rbp
    3a44: 48 83 ec 40                  	subq	$64, %rsp
    3a48: 48 89 7d e0                  	movq	%rdi, -32(%rbp)
    3a4c: 48 89 75 e8                  	movq	%rsi, -24(%rbp)
    3a50: e8 ab 00 00 00               	callq	0x3b00 <.text+0x1f50>
    3a55: 48 89 45 c8                  	movq	%rax, -56(%rbp)
    3a59: 88 55 c7                     	movb	%dl, -57(%rbp)
    3a5c: 48 8b 45 c8                  	movq	-56(%rbp), %rax
    3a60: 48 89 45 f0                  	movq	%rax, -16(%rbp)
    3a64: 8a 4d c7                     	movb	-57(%rbp), %cl
    3a67: 80 e1 01                     	andb	$1, %cl
    3a6a: 88 4d fe                     	movb	%cl, -2(%rbp)
    3a6d: 8a 4d c7                     	movb	-57(%rbp), %cl
    3a70: 80 e1 01                     	andb	$1, %cl
    3a73: 88 4d ff                     	movb	%cl, -1(%rbp)
    3a76: 8a 4d ff                     	movb	-1(%rbp), %cl
    3a79: 88 4d c6                     	movb	%cl, -58(%rbp)
    3a7c: 8a 45 c6                     	movb	-58(%rbp), %al
    3a7f: a8 01                        	testb	$1, %al
    3a81: 75 02                        	jne	0x3a85 <.text+0x1ed5>
    3a83: eb 0a                        	jmp	0x3a8f <.text+0x1edf>
    3a85: 48 c7 45 d0 00 00 00 00      	movq	$0, -48(%rbp)
    3a8d: eb 10                        	jmp	0x3a9f <.text+0x1eef>
    3a8f: 48 8b 45 c8                  	movq	-56(%rbp), %rax
    3a93: 48 89 45 d8                  	movq	%rax, -40(%rbp)
    3a97: 48 c7 45 d0 01 00 00 00      	movq	$1, -48(%rbp)
    3a9f: 48 8b 45 d0                  	movq	-48(%rbp), %rax
    3aa3: 48 8b 55 d8                  	movq	-40(%rbp), %rdx
    3aa7: 48 83 c4 40                  	addq	$64, %rsp
    3aab: 5d                           	popq	%rbp
    3aac: c3                           	retq
    3aad: cc                           	int3
    3aae: cc                           	int3
    3aaf: cc                           	int3
    3ab0: 55                           	pushq	%rbp
    3ab1: 48 89 e5                     	movq	%rsp, %rbp
    3ab4: 48 83 ec 30                  	subq	$48, %rsp
    3ab8: 48 89 7d e8                  	movq	%rdi, -24(%rbp)
    3abc: 48 89 75 f0                  	movq	%rsi, -16(%rbp)
    3ac0: e8 7b ff ff ff               	callq	0x3a40 <.text+0x1e90>
    3ac5: 48 89 55 e0                  	movq	%rdx, -32(%rbp)
    3ac9: 48 89 45 d8                  	movq	%rax, -40(%rbp)
    3acd: 48 8b 45 d8                  	movq	-40(%rbp), %rax
    3ad1: 48 85 c0                     	testq	%rax, %rax
    3ad4: 74 04                        	je	0x3ada <.text+0x1f2a>
    3ad6: eb 00                        	jmp	0x3ad8 <.text+0x1f28>
    3ad8: eb 0c                        	jmp	0x3ae6 <.text+0x1f36>
    3ada: 48 c7 45 d0 ff ff ff ff      	movq	$-1, -48(%rbp)
    3ae2: eb 0e                        	jmp	0x3af2 <.text+0x1f42>
    3ae4: 0f 0b                        	ud2
    3ae6: 48 8b 45 e0                  	movq	-32(%rbp), %rax
    3aea: 48 89 45 f8                  	movq	%rax, -8(%rbp)
    3aee: 48 89 45 d0                  	movq	%rax, -48(%rbp)
    3af2: 48 8b 45 d0                  	movq	-48(%rbp), %rax
    3af6: 48 83 c4 30                  	addq	$48, %rsp
    3afa: 5d                           	popq	%rbp
    3afb: c3                           	retq
    3afc: cc                           	int3
    3afd: cc                           	int3
    3afe: cc                           	int3
    3aff: cc                           	int3
    3b00: 55                           	pushq	%rbp
    3b01: 48 89 e5                     	movq	%rsp, %rbp
    3b04: 48 83 ec 50                  	subq	$80, %rsp
    3b08: 48 89 7d d0                  	movq	%rdi, -48(%rbp)
    3b0c: 48 89 75 d8                  	movq	%rsi, -40(%rbp)
    3b10: 48 89 f8                     	movq	%rdi, %rax
    3b13: 48 f7 e6                     	mulq	%rsi
    3b16: 0f 90 c1                     	seto	%cl
    3b19: 80 e1 01                     	andb	$1, %cl
    3b1c: 48 89 45 e0                  	movq	%rax, -32(%rbp)
    3b20: 88 4d e8                     	movb	%cl, -24(%rbp)
    3b23: 48 8b 45 e0                  	movq	-32(%rbp), %rax
    3b27: 8a 4d e8                     	movb	-24(%rbp), %cl
    3b2a: 48 89 45 b8                  	movq	%rax, -72(%rbp)
    3b2e: 88 4d b7                     	movb	%cl, -73(%rbp)
    3b31: 48 8b 45 b8                  	movq	-72(%rbp), %rax
    3b35: 48 89 45 f0                  	movq	%rax, -16(%rbp)
    3b39: 8a 4d b7                     	movb	-73(%rbp), %cl
    3b3c: 80 e1 01                     	andb	$1, %cl
    3b3f: 88 4d ff                     	movb	%cl, -1(%rbp)
    3b42: 48 89 45 c0                  	movq	%rax, -64(%rbp)
    3b46: 88 4d c8                     	movb	%cl, -56(%rbp)
    3b49: 48 8b 45 c0                  	movq	-64(%rbp), %rax
    3b4d: 8a 55 c8                     	movb	-56(%rbp), %dl
    3b50: 48 83 c4 50                  	addq	$80, %rsp
    3b54: 5d                           	popq	%rbp
    3b55: c3                           	retq
    3b56: cc                           	int3
    3b57: cc                           	int3
    3b58: cc                           	int3
    3b59: cc                           	int3
    3b5a: cc                           	int3
    3b5b: cc                           	int3
    3b5c: cc                           	int3
    3b5d: cc                           	int3
    3b5e: cc                           	int3
    3b5f: cc                           	int3
    3b60: 55                           	pushq	%rbp
    3b61: 48 89 e5                     	movq	%rsp, %rbp
    3b64: 48 83 ec 10                  	subq	$16, %rsp
    3b68: 48 89 7d f0                  	movq	%rdi, -16(%rbp)
    3b6c: 48 89 75 f8                  	movq	%rsi, -8(%rbp)
    3b70: e8 eb f8 ff ff               	callq	0x3460 <.text+0x18b0>
    3b75: 48 83 c4 10                  	addq	$16, %rsp
    3b79: 5d                           	popq	%rbp
    3b7a: c3                           	retq
    3b7b: cc                           	int3
    3b7c: cc                           	int3
    3b7d: cc                           	int3
    3b7e: cc                           	int3
    3b7f: cc                           	int3
    3b80: 55                           	pushq	%rbp
    3b81: 48 89 e5                     	movq	%rsp, %rbp
    3b84: 48 83 ec 10                  	subq	$16, %rsp
    3b88: 48 89 7d f0                  	movq	%rdi, -16(%rbp)
    3b8c: 48 89 75 f8                  	movq	%rsi, -8(%rbp)
    3b90: e8 5b f8 ff ff               	callq	0x33f0 <.text+0x1840>
    3b95: 48 83 c4 10                  	addq	$16, %rsp
    3b99: 5d                           	popq	%rbp
    3b9a: c3                           	retq
    3b9b: cc                           	int3
    3b9c: cc                           	int3
    3b9d: cc                           	int3
    3b9e: cc                           	int3
    3b9f: cc                           	int3
    3ba0: 55                           	pushq	%rbp
    3ba1: 48 89 e5                     	movq	%rsp, %rbp
    3ba4: 48 83 ec 10                  	subq	$16, %rsp
    3ba8: 48 89 7d f0                  	movq	%rdi, -16(%rbp)
    3bac: 48 89 75 f8                  	movq	%rsi, -8(%rbp)
    3bb0: e8 cb f7 ff ff               	callq	0x3380 <.text+0x17d0>
    3bb5: 48 83 c4 10                  	addq	$16, %rsp
    3bb9: 5d                           	popq	%rbp
    3bba: c3                           	retq
    3bbb: cc                           	int3
    3bbc: cc                           	int3
    3bbd: cc                           	int3
    3bbe: cc                           	int3
    3bbf: cc                           	int3
    3bc0: 55                           	pushq	%rbp
    3bc1: 48 89 e5                     	movq	%rsp, %rbp
    3bc4: 48 83 ec 10                  	subq	$16, %rsp
    3bc8: 48 89 75 f0                  	movq	%rsi, -16(%rbp)
    3bcc: 48 89 7d f8                  	movq	%rdi, -8(%rbp)
    3bd0: 48 8d 75 f0                  	leaq	-16(%rbp), %rsi
    3bd4: e8 87 ff ff ff               	callq	0x3b60 <.text+0x1fb0>
    3bd9: 48 8b 45 f0                  	movq	-16(%rbp), %rax
    3bdd: 48 83 c4 10                  	addq	$16, %rsp
    3be1: 5d                           	popq	%rbp
    3be2: c3                           	retq
    3be3: cc                           	int3
    3be4: cc                           	int3
    3be5: cc                           	int3
    3be6: cc                           	int3
    3be7: cc                           	int3
    3be8: cc                           	int3
    3be9: cc                           	int3
    3bea: cc                           	int3
    3beb: cc                           	int3
    3bec: cc                           	int3
    3bed: cc                           	int3
    3bee: cc                           	int3
    3bef: cc                           	int3
    3bf0: 55                           	pushq	%rbp
    3bf1: 48 89 e5                     	movq	%rsp, %rbp
    3bf4: 48 83 ec 10                  	subq	$16, %rsp
    3bf8: 40 88 75 f7                  	movb	%sil, -9(%rbp)
    3bfc: 48 89 7d f8                  	movq	%rdi, -8(%rbp)
    3c00: 48 8d 75 f7                  	leaq	-9(%rbp), %rsi
    3c04: e8 97 ff ff ff               	callq	0x3ba0 <.text+0x1ff0>
    3c09: 8a 45 f7                     	movb	-9(%rbp), %al
    3c0c: 48 83 c4 10                  	addq	$16, %rsp
    3c10: 5d                           	popq	%rbp
    3c11: c3                           	retq
    3c12: cc                           	int3
    3c13: cc                           	int3
    3c14: cc                           	int3
    3c15: cc                           	int3
    3c16: cc                           	int3
    3c17: cc                           	int3
    3c18: cc                           	int3
    3c19: cc                           	int3
    3c1a: cc                           	int3
    3c1b: cc                           	int3
    3c1c: cc                           	int3
    3c1d: cc                           	int3
    3c1e: cc                           	int3
    3c1f: cc                           	int3
    3c20: 55                           	pushq	%rbp
    3c21: 48 89 e5                     	movq	%rsp, %rbp
    3c24: 48 83 ec 10                  	subq	$16, %rsp
    3c28: 89 75 f4                     	movl	%esi, -12(%rbp)
    3c2b: 48 89 7d f8                  	movq	%rdi, -8(%rbp)
    3c2f: 48 8d 75 f4                  	leaq	-12(%rbp), %rsi
    3c33: e8 48 ff ff ff               	callq	0x3b80 <.text+0x1fd0>
    3c38: 8b 45 f4                     	movl	-12(%rbp), %eax
    3c3b: 48 83 c4 10                  	addq	$16, %rsp
    3c3f: 5d                           	popq	%rbp
    3c40: c3                           	retq
    3c41: cc                           	int3
    3c42: cc                           	int3
    3c43: cc                           	int3
    3c44: cc                           	int3
    3c45: cc                           	int3
    3c46: cc                           	int3
    3c47: cc                           	int3
    3c48: cc                           	int3
    3c49: cc                           	int3
    3c4a: cc                           	int3
    3c4b: cc                           	int3
    3c4c: cc                           	int3
    3c4d: cc                           	int3
    3c4e: cc                           	int3
    3c4f: cc                           	int3
    3c50: 55                           	pushq	%rbp
    3c51: 48 89 e5                     	movq	%rsp, %rbp
    3c54: 48 83 ec 30                  	subq	$48, %rsp
    3c58: 48 89 7d f0                  	movq	%rdi, -16(%rbp)
    3c5c: 48 89 75 f8                  	movq	%rsi, -8(%rbp)
    3c60: 48 89 7d e0                  	movq	%rdi, -32(%rbp)
    3c64: 48 89 75 e8                  	movq	%rsi, -24(%rbp)
    3c68: 48 8b 45 e0                  	movq	-32(%rbp), %rax
    3c6c: 48 8b 4d e8                  	movq	-24(%rbp), %rcx
    3c70: 48 89 45 d0                  	movq	%rax, -48(%rbp)
    3c74: 48 89 4d d8                  	movq	%rcx, -40(%rbp)
    3c78: 48 8b 45 d0                  	movq	-48(%rbp), %rax
    3c7c: 48 8b 55 d8                  	movq	-40(%rbp), %rdx
    3c80: 48 83 c4 30                  	addq	$48, %rsp
    3c84: 5d                           	popq	%rbp
    3c85: c3                           	retq
    3c86: cc                           	int3
    3c87: cc                           	int3
    3c88: cc                           	int3
    3c89: cc                           	int3
    3c8a: cc                           	int3
    3c8b: cc                           	int3
    3c8c: cc                           	int3
    3c8d: cc                           	int3
    3c8e: cc                           	int3
    3c8f: cc                           	int3
    3c90: 55                           	pushq	%rbp
    3c91: 48 89 e5                     	movq	%rsp, %rbp
    3c94: 48 83 ec 10                  	subq	$16, %rsp
    3c98: 48 89 7d f8                  	movq	%rdi, -8(%rbp)
    3c9c: 48 89 7d f0                  	movq	%rdi, -16(%rbp)
    3ca0: 48 8b 45 f0                  	movq	-16(%rbp), %rax
    3ca4: 48 83 c4 10                  	addq	$16, %rsp
    3ca8: 5d                           	popq	%rbp
    3ca9: c3                           	retq
    3caa: cc                           	int3
    3cab: cc                           	int3
    3cac: cc                           	int3
    3cad: cc                           	int3
    3cae: cc                           	int3
    3caf: cc                           	int3
    3cb0: 55                           	pushq	%rbp
    3cb1: 48 89 e5                     	movq	%rsp, %rbp
    3cb4: 50                           	pushq	%rax
    3cb5: 48 89 7d f8                  	movq	%rdi, -8(%rbp)
    3cb9: 48 89 f8                     	movq	%rdi, %rax
    3cbc: 48 83 c4 08                  	addq	$8, %rsp
    3cc0: 5d                           	popq	%rbp
    3cc1: c3                           	retq
    3cc2: cc                           	int3
    3cc3: cc                           	int3
    3cc4: cc                           	int3
    3cc5: cc                           	int3
    3cc6: cc                           	int3
    3cc7: cc                           	int3
    3cc8: cc                           	int3
    3cc9: cc                           	int3
    3cca: cc                           	int3
    3ccb: cc                           	int3
    3ccc: cc                           	int3
    3ccd: cc                           	int3
    3cce: cc                           	int3
    3ccf: cc                           	int3
    3cd0: 55                           	pushq	%rbp
    3cd1: 48 89 e5                     	movq	%rsp, %rbp
    3cd4: 48 83 ec 20                  	subq	$32, %rsp
    3cd8: 48 89 7d f8                  	movq	%rdi, -8(%rbp)
    3cdc: 48 89 7d f0                  	movq	%rdi, -16(%rbp)
    3ce0: 31 c0                        	xorl	%eax, %eax
    3ce2: 89 c6                        	movl	%eax, %esi
    3ce4: 48 8b 7d f0                  	movq	-16(%rbp), %rdi
    3ce8: e8 43 00 00 00               	callq	0x3d30 <.text+0x2180>
    3ced: 88 45 ef                     	movb	%al, -17(%rbp)
    3cf0: 8a 45 ef                     	movb	-17(%rbp), %al
    3cf3: 24 01                        	andb	$1, %al
    3cf5: 0f b6 c0                     	movzbl	%al, %eax
    3cf8: 48 83 c4 20                  	addq	$32, %rsp
    3cfc: 5d                           	popq	%rbp
    3cfd: c3                           	retq
    3cfe: cc                           	int3
    3cff: cc                           	int3
    3d00: 55                           	pushq	%rbp
    3d01: 48 89 e5                     	movq	%rsp, %rbp
    3d04: 48 83 ec 20                  	subq	$32, %rsp
    3d08: 48 89 7d e8                  	movq	%rdi, -24(%rbp)
    3d0c: 48 89 75 f0                  	movq	%rsi, -16(%rbp)
    3d10: 48 01 f7                     	addq	%rsi, %rdi
    3d13: 48 89 7d f8                  	movq	%rdi, -8(%rbp)
    3d17: 48 8b 45 f8                  	movq	-8(%rbp), %rax
    3d1b: 48 89 45 e0                  	movq	%rax, -32(%rbp)
    3d1f: 48 8b 45 e0                  	movq	-32(%rbp), %rax
    3d23: 48 83 c4 20                  	addq	$32, %rsp
    3d27: 5d                           	popq	%rbp
    3d28: c3                           	retq
    3d29: cc                           	int3
    3d2a: cc                           	int3
    3d2b: cc                           	int3
    3d2c: cc                           	int3
    3d2d: cc                           	int3
    3d2e: cc                           	int3
    3d2f: cc                           	int3
    3d30: 55                           	pushq	%rbp
    3d31: 48 89 e5                     	movq	%rsp, %rbp
    3d34: 48 83 ec 20                  	subq	$32, %rsp
    3d38: 48 89 7d e8                  	movq	%rdi, -24(%rbp)
    3d3c: 48 89 75 f0                  	movq	%rsi, -16(%rbp)
    3d40: 48 39 f7                     	cmpq	%rsi, %rdi
    3d43: 0f 94 c0                     	sete	%al
    3d46: 24 01                        	andb	$1, %al
    3d48: 88 45 ff                     	movb	%al, -1(%rbp)
    3d4b: 8a 45 ff                     	movb	-1(%rbp), %al
    3d4e: 88 45 e7                     	movb	%al, -25(%rbp)
    3d51: 8a 45 e7                     	movb	-25(%rbp), %al
    3d54: 24 01                        	andb	$1, %al
    3d56: 0f b6 c0                     	movzbl	%al, %eax
    3d59: 48 83 c4 20                  	addq	$32, %rsp
    3d5d: 5d                           	popq	%rbp
    3d5e: c3                           	retq
    3d5f: cc                           	int3
    3d60: 55                           	pushq	%rbp
    3d61: 48 89 e5                     	movq	%rsp, %rbp
    3d64: 48 83 ec 20                  	subq	$32, %rsp
    3d68: 48 89 7d f0                  	movq	%rdi, -16(%rbp)
    3d6c: 48 89 75 f8                  	movq	%rsi, -8(%rbp)
    3d70: e8 8b ff ff ff               	callq	0x3d00 <.text+0x2150>
    3d75: 48 89 45 e8                  	movq	%rax, -24(%rbp)
    3d79: 48 8b 45 e8                  	movq	-24(%rbp), %rax
    3d7d: 48 83 c4 20                  	addq	$32, %rsp
    3d81: 5d                           	popq	%rbp
    3d82: c3                           	retq
    3d83: cc                           	int3
    3d84: cc                           	int3
    3d85: cc                           	int3
    3d86: cc                           	int3
    3d87: cc                           	int3
    3d88: cc                           	int3
    3d89: cc                           	int3
    3d8a: cc                           	int3
    3d8b: cc                           	int3
    3d8c: cc                           	int3
    3d8d: cc                           	int3
    3d8e: cc                           	int3
    3d8f: cc                           	int3
    3d90: 55                           	pushq	%rbp
    3d91: 48 89 e5                     	movq	%rsp, %rbp
    3d94: 50                           	pushq	%rax
    3d95: 48 83 c4 08                  	addq	$8, %rsp
    3d99: 5d                           	popq	%rbp
    3d9a: c3                           	retq
    3d9b: cc                           	int3
    3d9c: cc                           	int3
    3d9d: cc                           	int3
    3d9e: cc                           	int3
    3d9f: cc                           	int3
    3da0: 55                           	pushq	%rbp
    3da1: 48 89 e5                     	movq	%rsp, %rbp
    3da4: 48 83 ec 48                  	subq	$72, %rsp
    3da8: 48 89 7d e0                  	movq	%rdi, -32(%rbp)
    3dac: 48 89 75 e8                  	movq	%rsi, -24(%rbp)
    3db0: 48 89 75 f0                  	movq	%rsi, -16(%rbp)
    3db4: 48 8b 45 f0                  	movq	-16(%rbp), %rax
    3db8: 48 89 7d c8                  	movq	%rdi, -56(%rbp)
    3dbc: 48 89 45 c0                  	movq	%rax, -64(%rbp)
    3dc0: 48 8b 45 c8                  	movq	-56(%rbp), %rax
    3dc4: 48 89 45 f8                  	movq	%rax, -8(%rbp)
    3dc8: 48 8b 45 f8                  	movq	-8(%rbp), %rax
    3dcc: 48 89 45 b8                  	movq	%rax, -72(%rbp)
    3dd0: 48 8b 45 b8                  	movq	-72(%rbp), %rax
    3dd4: 48 89 45 d0                  	movq	%rax, -48(%rbp)
    3dd8: 48 8b 4d c0                  	movq	-64(%rbp), %rcx
    3ddc: 48 89 4d d8                  	movq	%rcx, -40(%rbp)
    3de0: 48 8b 45 d0                  	movq	-48(%rbp), %rax
    3de4: 48 8b 55 d8                  	movq	-40(%rbp), %rdx
    3de8: 48 83 c4 48                  	addq	$72, %rsp
    3dec: 5d                           	popq	%rbp
    3ded: c3                           	retq
    3dee: cc                           	int3
    3def: cc                           	int3
    3df0: 55                           	pushq	%rbp
    3df1: 48 89 e5                     	movq	%rsp, %rbp
    3df4: 48 83 ec 30                  	subq	$48, %rsp
    3df8: 48 89 f8                     	movq	%rdi, %rax
    3dfb: 48 89 75 e0                  	movq	%rsi, -32(%rbp)
    3dff: 48 89 55 e8                  	movq	%rdx, -24(%rbp)
    3e03: 48 89 4d f0                  	movq	%rcx, -16(%rbp)
    3e07: 4c 89 45 f8                  	movq	%r8, -8(%rbp)
    3e0b: 48 c7 45 d0 00 00 00 00      	movq	$0, -48(%rbp)
    3e13: 48 89 37                     	movq	%rsi, (%rdi)
    3e16: 48 89 57 08                  	movq	%rdx, 8(%rdi)
    3e1a: 48 8b 55 d0                  	movq	-48(%rbp), %rdx
    3e1e: 48 8b 75 d8                  	movq	-40(%rbp), %rsi
    3e22: 48 89 57 10                  	movq	%rdx, 16(%rdi)
    3e26: 48 89 77 18                  	movq	%rsi, 24(%rdi)
    3e2a: 48 89 4f 20                  	movq	%rcx, 32(%rdi)
    3e2e: 4c 89 47 28                  	movq	%r8, 40(%rdi)
    3e32: 48 83 c4 30                  	addq	$48, %rsp
    3e36: 5d                           	popq	%rbp
    3e37: c3                           	retq
    3e38: cc                           	int3
    3e39: cc                           	int3
    3e3a: cc                           	int3
    3e3b: cc                           	int3
    3e3c: cc                           	int3
    3e3d: cc                           	int3
    3e3e: cc                           	int3
    3e3f: cc                           	int3
    3e40: 55                           	pushq	%rbp
    3e41: 48 89 e5                     	movq	%rsp, %rbp
    3e44: 48 83 ec 20                  	subq	$32, %rsp
    3e48: 89 7d f4                     	movl	%edi, -12(%rbp)
    3e4b: 48 89 75 f8                  	movq	%rsi, -8(%rbp)
    3e4f: 89 7d e8                     	movl	%edi, -24(%rbp)
    3e52: 48 89 75 e0                  	movq	%rsi, -32(%rbp)
    3e56: 48 8b 45 e0                  	movq	-32(%rbp), %rax
    3e5a: 8b 55 e8                     	movl	-24(%rbp), %edx
    3e5d: 48 83 c4 20                  	addq	$32, %rsp
    3e61: 5d                           	popq	%rbp
    3e62: c3                           	retq
    3e63: cc                           	int3
    3e64: cc                           	int3
    3e65: cc                           	int3
    3e66: cc                           	int3
    3e67: cc                           	int3
    3e68: cc                           	int3
    3e69: cc                           	int3
    3e6a: cc                           	int3
    3e6b: cc                           	int3
    3e6c: cc                           	int3
    3e6d: cc                           	int3
    3e6e: cc                           	int3
    3e6f: cc                           	int3
    3e70: 55                           	pushq	%rbp
    3e71: 48 89 e5                     	movq	%rsp, %rbp
    3e74: 48 81 ec b0 00 00 00         	subq	$176, %rsp
    3e7b: 48 89 7d c0                  	movq	%rdi, -64(%rbp)
    3e7f: 89 75 c8                     	movl	%esi, -56(%rbp)
    3e82: 48 89 55 d0                  	movq	%rdx, -48(%rbp)
    3e86: 48 89 4d d8                  	movq	%rcx, -40(%rbp)
    3e8a: 48 c7 45 88 00 00 00 00      	movq	$0, -120(%rbp)
    3e92: 48 89 7d 90                  	movq	%rdi, -112(%rbp)
    3e96: 48 8b 7d 88                  	movq	-120(%rbp), %rdi
    3e9a: 48 8b 45 90                  	movq	-112(%rbp), %rax
    3e9e: 89 75 80                     	movl	%esi, -128(%rbp)
    3ea1: 48 89 c6                     	movq	%rax, %rsi
    3ea4: 48 89 8d 78 ff ff ff         	movq	%rcx, -136(%rbp)
    3eab: 48 89 95 70 ff ff ff         	movq	%rdx, -144(%rbp)
    3eb2: e8 e9 10 00 00               	callq	0x4fa0 <.text+0x33f0>
    3eb7: 48 89 85 68 ff ff ff         	movq	%rax, -152(%rbp)
    3ebe: 48 89 95 60 ff ff ff         	movq	%rdx, -160(%rbp)
    3ec5: 48 8b 85 68 ff ff ff         	movq	-152(%rbp), %rax
    3ecc: 48 89 45 98                  	movq	%rax, -104(%rbp)
    3ed0: 48 8b 8d 60 ff ff ff         	movq	-160(%rbp), %rcx
    3ed7: 48 89 4d a0                  	movq	%rcx, -96(%rbp)
    3edb: 48 8d 7d 98                  	leaq	-104(%rbp), %rdi
    3edf: e8 1c 10 00 00               	callq	0x4f00 <.text+0x3350>
    3ee4: 48 89 55 b0                  	movq	%rdx, -80(%rbp)
    3ee8: 48 89 45 a8                  	movq	%rax, -88(%rbp)
    3eec: 48 8b 45 a8                  	movq	-88(%rbp), %rax
    3ef0: 48 85 c0                     	testq	%rax, %rax
    3ef3: 74 04                        	je	0x3ef9 <.text+0x2349>
    3ef5: eb 00                        	jmp	0x3ef7 <.text+0x2347>
    3ef7: eb 08                        	jmp	0x3f01 <.text+0x2351>
    3ef9: c6 45 87 00                  	movb	$0, -121(%rbp)
    3efd: eb 62                        	jmp	0x3f61 <.text+0x23b1>
    3eff: 0f 0b                        	ud2
    3f01: 48 8b 45 b0                  	movq	-80(%rbp), %rax
    3f05: 48 89 45 f0                  	movq	%rax, -16(%rbp)
    3f09: 48 89 45 f8                  	movq	%rax, -8(%rbp)
    3f0d: 48 8b bd 70 ff ff ff         	movq	-144(%rbp), %rdi
    3f14: 8b 75 80                     	movl	-128(%rbp), %esi
    3f17: 48 8b 85 78 ff ff ff         	movq	-136(%rbp), %rax
    3f1e: ff 50 20                     	callq	*32(%rax)
    3f21: 88 85 5f ff ff ff            	movb	%al, -161(%rbp)
    3f27: 8a 85 5f ff ff ff            	movb	-161(%rbp), %al
    3f2d: 0f b6 c8                     	movzbl	%al, %ecx
    3f30: 83 e1 01                     	andl	$1, %ecx
    3f33: 89 cf                        	movl	%ecx, %edi
    3f35: e8 d6 de ff ff               	callq	0x1e10 <.text+0x260>
    3f3a: 24 01                        	andb	$1, %al
    3f3c: 88 45 bf                     	movb	%al, -65(%rbp)
    3f3f: 0f b6 45 bf                  	movzbl	-65(%rbp), %eax
    3f43: 89 c1                        	movl	%eax, %ecx
    3f45: f6 c1 01                     	testb	$1, %cl
    3f48: 74 04                        	je	0x3f4e <.text+0x239e>
    3f4a: eb 00                        	jmp	0x3f4c <.text+0x239c>
    3f4c: eb 04                        	jmp	0x3f52 <.text+0x23a2>
    3f4e: eb 8b                        	jmp	0x3edb <.text+0x232b>
    3f50: 0f 0b                        	ud2
    3f52: e8 39 fe ff ff               	callq	0x3d90 <.text+0x21e0>
    3f57: e8 f4 de ff ff               	callq	0x1e50 <.text+0x2a0>
    3f5c: 24 01                        	andb	$1, %al
    3f5e: 88 45 87                     	movb	%al, -121(%rbp)
    3f61: 8a 45 87                     	movb	-121(%rbp), %al
    3f64: 24 01                        	andb	$1, %al
    3f66: 0f b6 c0                     	movzbl	%al, %eax
    3f69: 48 81 c4 b0 00 00 00         	addq	$176, %rsp
    3f70: 5d                           	popq	%rbp
    3f71: c3                           	retq
    3f72: cc                           	int3
    3f73: cc                           	int3
    3f74: cc                           	int3
    3f75: cc                           	int3
    3f76: cc                           	int3
    3f77: cc                           	int3
    3f78: cc                           	int3
    3f79: cc                           	int3
    3f7a: cc                           	int3
    3f7b: cc                           	int3
    3f7c: cc                           	int3
    3f7d: cc                           	int3
    3f7e: cc                           	int3
    3f7f: cc                           	int3
    3f80: 55                           	pushq	%rbp
    3f81: 48 89 e5                     	movq	%rsp, %rbp
    3f84: 48 81 ec 80 02 00 00         	subq	$640, %rsp
    3f8b: 48 89 bd e0 fe ff ff         	movq	%rdi, -288(%rbp)
    3f92: 40 88 f0                     	movb	%sil, %al
    3f95: 24 01                        	andb	$1, %al
    3f97: 88 85 ef fe ff ff            	movb	%al, -273(%rbp)
    3f9d: 48 89 95 f0 fe ff ff         	movq	%rdx, -272(%rbp)
    3fa4: 48 89 8d f8 fe ff ff         	movq	%rcx, -264(%rbp)
    3fab: 4c 89 85 00 ff ff ff         	movq	%r8, -256(%rbp)
    3fb2: 4c 89 8d 08 ff ff ff         	movq	%r9, -248(%rbp)
    3fb9: 48 89 bd 78 fe ff ff         	movq	%rdi, -392(%rbp)
    3fc0: 4c 89 c7                     	movq	%r8, %rdi
    3fc3: 40 88 b5 77 fe ff ff         	movb	%sil, -393(%rbp)
    3fca: 4c 89 ce                     	movq	%r9, %rsi
    3fcd: 4c 89 8d 68 fe ff ff         	movq	%r9, -408(%rbp)
    3fd4: 4c 89 85 60 fe ff ff         	movq	%r8, -416(%rbp)
    3fdb: 48 89 8d 58 fe ff ff         	movq	%rcx, -424(%rbp)
    3fe2: 48 89 95 50 fe ff ff         	movq	%rdx, -432(%rbp)
    3fe9: e8 f2 10 00 00               	callq	0x50e0 <.text+0x3530>
    3fee: 48 89 85 88 fe ff ff         	movq	%rax, -376(%rbp)
    3ff5: c7 85 94 fe ff ff 00 00 11 00	movl	$1114112, -364(%rbp)
    3fff: 8a 85 77 fe ff ff            	movb	-393(%rbp), %al
    4005: 34 ff                        	xorb	$-1, %al
    4007: a8 01                        	testb	$1, %al
    4009: 75 02                        	jne	0x400d <.text+0x245d>
    400b: eb 2c                        	jmp	0x4039 <.text+0x2489>
    400d: c7 85 94 fe ff ff 2d 00 00 00	movl	$45, -364(%rbp)
    4017: 48 8b 85 88 fe ff ff         	movq	-376(%rbp), %rax
    401e: 48 05 01 00 00 00            	addq	$1, %rax
    4024: 0f 92 c1                     	setb	%cl
    4027: f6 c1 01                     	testb	$1, %cl
    402a: 48 89 85 48 fe ff ff         	movq	%rax, -440(%rbp)
    4031: 0f 85 74 07 00 00            	jne	0x47ab <.text+0x2bfb>
    4037: eb 14                        	jmp	0x404d <.text+0x249d>
    4039: 48 8b bd 78 fe ff ff         	movq	-392(%rbp), %rdi
    4040: e8 3b 0b 00 00               	callq	0x4b80 <.text+0x2fd0>
    4045: 88 85 47 fe ff ff            	movb	%al, -441(%rbp)
    404b: eb 10                        	jmp	0x405d <.text+0x24ad>
    404d: 48 8b 85 48 fe ff ff         	movq	-440(%rbp), %rax
    4054: 48 89 85 88 fe ff ff         	movq	%rax, -376(%rbp)
    405b: eb 48                        	jmp	0x40a5 <.text+0x24f5>
    405d: 8a 85 47 fe ff ff            	movb	-441(%rbp), %al
    4063: a8 01                        	testb	$1, %al
    4065: 75 02                        	jne	0x4069 <.text+0x24b9>
    4067: eb 2c                        	jmp	0x4095 <.text+0x24e5>
    4069: c7 85 94 fe ff ff 2b 00 00 00	movl	$43, -364(%rbp)
    4073: 48 8b 85 88 fe ff ff         	movq	-376(%rbp), %rax
    407a: 48 05 01 00 00 00            	addq	$1, %rax
    4080: 0f 92 c1                     	setb	%cl
    4083: f6 c1 01                     	testb	$1, %cl
    4086: 48 89 85 38 fe ff ff         	movq	%rax, -456(%rbp)
    408d: 0f 85 32 07 00 00            	jne	0x47c5 <.text+0x2c15>
    4093: eb 02                        	jmp	0x4097 <.text+0x24e7>
    4095: eb 0e                        	jmp	0x40a5 <.text+0x24f5>
    4097: 48 8b 85 38 fe ff ff         	movq	-456(%rbp), %rax
    409e: 48 89 85 88 fe ff ff         	movq	%rax, -376(%rbp)
    40a5: 48 8b bd 78 fe ff ff         	movq	-392(%rbp), %rdi
    40ac: e8 ff 0a 00 00               	callq	0x4bb0 <.text+0x3000>
    40b1: 88 85 37 fe ff ff            	movb	%al, -457(%rbp)
    40b7: 8a 85 37 fe ff ff            	movb	-457(%rbp), %al
    40bd: a8 01                        	testb	$1, %al
    40bf: 75 02                        	jne	0x40c3 <.text+0x2513>
    40c1: eb 23                        	jmp	0x40e6 <.text+0x2536>
    40c3: 48 8b bd 50 fe ff ff         	movq	-432(%rbp), %rdi
    40ca: 48 8b b5 58 fe ff ff         	movq	-424(%rbp), %rsi
    40d1: e8 5a 10 00 00               	callq	0x5130 <.text+0x3580>
    40d6: 48 89 85 28 fe ff ff         	movq	%rax, -472(%rbp)
    40dd: 48 89 95 20 fe ff ff         	movq	%rdx, -480(%rbp)
    40e4: eb 0d                        	jmp	0x40f3 <.text+0x2543>
    40e6: 48 c7 85 98 fe ff ff 00 00 00 00     	movq	$0, -360(%rbp)
    40f1: eb 65                        	jmp	0x4158 <.text+0x25a8>
    40f3: 48 8b bd 28 fe ff ff         	movq	-472(%rbp), %rdi
    40fa: 48 8b b5 20 fe ff ff         	movq	-480(%rbp), %rsi
    4101: e8 fa 0e 00 00               	callq	0x5000 <.text+0x3450>
    4106: 48 89 85 18 fe ff ff         	movq	%rax, -488(%rbp)
    410d: 48 8b 85 18 fe ff ff         	movq	-488(%rbp), %rax
    4114: 48 03 85 88 fe ff ff         	addq	-376(%rbp), %rax
    411b: 0f 92 c1                     	setb	%cl
    411e: f6 c1 01                     	testb	$1, %cl
    4121: 48 89 85 10 fe ff ff         	movq	%rax, -496(%rbp)
    4128: 0f 85 b1 06 00 00            	jne	0x47df <.text+0x2c2f>
    412e: 48 8b 85 10 fe ff ff         	movq	-496(%rbp), %rax
    4135: 48 89 85 88 fe ff ff         	movq	%rax, -376(%rbp)
    413c: 48 8b 8d 50 fe ff ff         	movq	-432(%rbp), %rcx
    4143: 48 89 8d 98 fe ff ff         	movq	%rcx, -360(%rbp)
    414a: 48 8b 95 58 fe ff ff         	movq	-424(%rbp), %rdx
    4151: 48 89 95 a0 fe ff ff         	movq	%rdx, -352(%rbp)
    4158: 48 8b 85 78 fe ff ff         	movq	-392(%rbp), %rax
    415f: 48 8b 08                     	movq	(%rax), %rcx
    4162: 48 85 c9                     	testq	%rcx, %rcx
    4165: 74 09                        	je	0x4170 <.text+0x25c0>
    4167: eb 00                        	jmp	0x4169 <.text+0x25b9>
    4169: e9 9b 00 00 00               	jmp	0x4209 <.text+0x2659>
    416e: 0f 0b                        	ud2
    4170: 8b b5 94 fe ff ff            	movl	-364(%rbp), %esi
    4176: 48 8b 95 98 fe ff ff         	movq	-360(%rbp), %rdx
    417d: 48 8b 8d a0 fe ff ff         	movq	-352(%rbp), %rcx
    4184: 48 8b bd 78 fe ff ff         	movq	-392(%rbp), %rdi
    418b: e8 a0 06 00 00               	callq	0x4830 <.text+0x2c80>
    4190: 88 85 0f fe ff ff            	movb	%al, -497(%rbp)
    4196: 8a 85 0f fe ff ff            	movb	-497(%rbp), %al
    419c: 0f b6 c8                     	movzbl	%al, %ecx
    419f: 83 e1 01                     	andl	$1, %ecx
    41a2: 89 cf                        	movl	%ecx, %edi
    41a4: e8 67 dc ff ff               	callq	0x1e10 <.text+0x260>
    41a9: 24 01                        	andb	$1, %al
    41ab: 88 85 ac fe ff ff            	movb	%al, -340(%rbp)
    41b1: 0f b6 85 ac fe ff ff         	movzbl	-340(%rbp), %eax
    41b8: 89 c1                        	movl	%eax, %ecx
    41ba: f6 c1 01                     	testb	$1, %cl
    41bd: 74 04                        	je	0x41c3 <.text+0x2613>
    41bf: eb 00                        	jmp	0x41c1 <.text+0x2611>
    41c1: eb 2f                        	jmp	0x41f2 <.text+0x2642>
    41c3: 48 8b 85 78 fe ff ff         	movq	-392(%rbp), %rax
    41ca: 48 8b 78 20                  	movq	32(%rax), %rdi
    41ce: 48 8b 48 28                  	movq	40(%rax), %rcx
    41d2: 48 8b b5 60 fe ff ff         	movq	-416(%rbp), %rsi
    41d9: 48 8b 95 68 fe ff ff         	movq	-408(%rbp), %rdx
    41e0: ff 51 18                     	callq	*24(%rcx)
    41e3: 24 01                        	andb	$1, %al
    41e5: 88 85 87 fe ff ff            	movb	%al, -377(%rbp)
    41eb: e9 a7 05 00 00               	jmp	0x4797 <.text+0x2be7>
    41f0: 0f 0b                        	ud2
    41f2: e8 99 fb ff ff               	callq	0x3d90 <.text+0x21e0>
    41f7: e8 54 dc ff ff               	callq	0x1e50 <.text+0x2a0>
    41fc: 24 01                        	andb	$1, %al
    41fe: 88 85 87 fe ff ff            	movb	%al, -377(%rbp)
    4204: e9 8e 05 00 00               	jmp	0x4797 <.text+0x2be7>
    4209: 48 8b 85 78 fe ff ff         	movq	-392(%rbp), %rax
    4210: 48 05 08 00 00 00            	addq	$8, %rax
    4216: 48 89 45 90                  	movq	%rax, -112(%rbp)
    421a: 48 8b 85 88 fe ff ff         	movq	-376(%rbp), %rax
    4221: 48 8b 8d 78 fe ff ff         	movq	-392(%rbp), %rcx
    4228: 48 3b 41 08                  	cmpq	8(%rcx), %rax
    422c: 72 33                        	jb	0x4261 <.text+0x26b1>
    422e: 48 8b 85 78 fe ff ff         	movq	-392(%rbp), %rax
    4235: 48 8b 48 08                  	movq	8(%rax), %rcx
    4239: 48 89 4d 98                  	movq	%rcx, -104(%rbp)
    423d: 8b b5 94 fe ff ff            	movl	-364(%rbp), %esi
    4243: 48 8b 95 98 fe ff ff         	movq	-360(%rbp), %rdx
    424a: 48 8b 8d a0 fe ff ff         	movq	-352(%rbp), %rcx
    4251: 48 89 c7                     	movq	%rax, %rdi
    4254: e8 d7 05 00 00               	callq	0x4830 <.text+0x2c80>
    4259: 88 85 0e fe ff ff            	movb	%al, -498(%rbp)
    425f: eb 25                        	jmp	0x4286 <.text+0x26d6>
    4261: 48 8b 85 78 fe ff ff         	movq	-392(%rbp), %rax
    4268: 48 05 08 00 00 00            	addq	$8, %rax
    426e: 48 89 45 a0                  	movq	%rax, -96(%rbp)
    4272: 48 8b bd 78 fe ff ff         	movq	-392(%rbp), %rdi
    4279: e8 62 09 00 00               	callq	0x4be0 <.text+0x3030>
    427e: 88 85 0d fe ff ff            	movb	%al, -499(%rbp)
    4284: eb 73                        	jmp	0x42f9 <.text+0x2749>
    4286: 8a 85 0e fe ff ff            	movb	-498(%rbp), %al
    428c: 0f b6 c8                     	movzbl	%al, %ecx
    428f: 83 e1 01                     	andl	$1, %ecx
    4292: 89 cf                        	movl	%ecx, %edi
    4294: e8 77 db ff ff               	callq	0x1e10 <.text+0x260>
    4299: 24 01                        	andb	$1, %al
    429b: 88 85 ad fe ff ff            	movb	%al, -339(%rbp)
    42a1: 0f b6 85 ad fe ff ff         	movzbl	-339(%rbp), %eax
    42a8: 89 c1                        	movl	%eax, %ecx
    42aa: f6 c1 01                     	testb	$1, %cl
    42ad: 74 04                        	je	0x42b3 <.text+0x2703>
    42af: eb 00                        	jmp	0x42b1 <.text+0x2701>
    42b1: eb 2f                        	jmp	0x42e2 <.text+0x2732>
    42b3: 48 8b 85 78 fe ff ff         	movq	-392(%rbp), %rax
    42ba: 48 8b 78 20                  	movq	32(%rax), %rdi
    42be: 48 8b 48 28                  	movq	40(%rax), %rcx
    42c2: 48 8b b5 60 fe ff ff         	movq	-416(%rbp), %rsi
    42c9: 48 8b 95 68 fe ff ff         	movq	-408(%rbp), %rdx
    42d0: ff 51 18                     	callq	*24(%rcx)
    42d3: 24 01                        	andb	$1, %al
    42d5: 88 85 87 fe ff ff            	movb	%al, -377(%rbp)
    42db: e9 b7 04 00 00               	jmp	0x4797 <.text+0x2be7>
    42e0: 0f 0b                        	ud2
    42e2: e8 a9 fa ff ff               	callq	0x3d90 <.text+0x21e0>
    42e7: e8 64 db ff ff               	callq	0x1e50 <.text+0x2a0>
    42ec: 24 01                        	andb	$1, %al
    42ee: 88 85 87 fe ff ff            	movb	%al, -377(%rbp)
    42f4: e9 9e 04 00 00               	jmp	0x4797 <.text+0x2be7>
    42f9: 8a 85 0d fe ff ff            	movb	-499(%rbp), %al
    42ff: a8 01                        	testb	$1, %al
    4301: 75 02                        	jne	0x4305 <.text+0x2755>
    4303: eb 34                        	jmp	0x4339 <.text+0x2789>
    4305: 48 8b 85 78 fe ff ff         	movq	-392(%rbp), %rax
    430c: 48 8b 48 08                  	movq	8(%rax), %rcx
    4310: 48 89 4d a8                  	movq	%rcx, -88(%rbp)
    4314: 48 05 34 00 00 00            	addq	$52, %rax
    431a: 48 89 c7                     	movq	%rax, %rdi
    431d: be 30 00 00 00               	movl	$48, %esi
    4322: 48 89 8d 00 fe ff ff         	movq	%rcx, -512(%rbp)
    4329: e8 f2 f8 ff ff               	callq	0x3c20 <.text+0x2070>
    432e: 89 45 b0                     	movl	%eax, -80(%rbp)
    4331: 89 85 fc fd ff ff            	movl	%eax, -516(%rbp)
    4337: eb 2e                        	jmp	0x4367 <.text+0x27b7>
    4339: 48 8b 85 78 fe ff ff         	movq	-392(%rbp), %rax
    4340: 48 8b 48 08                  	movq	8(%rax), %rcx
    4344: 48 89 4d d8                  	movq	%rcx, -40(%rbp)
    4348: 48 2b 8d 88 fe ff ff         	subq	-376(%rbp), %rcx
    434f: 0f 92 c2                     	setb	%dl
    4352: f6 c2 01                     	testb	$1, %dl
    4355: 48 89 8d f0 fd ff ff         	movq	%rcx, -528(%rbp)
    435c: 0f 85 b1 04 00 00            	jne	0x4813 <.text+0x2c63>
    4362: e9 76 02 00 00               	jmp	0x45dd <.text+0x2a2d>
    4367: 48 8b 85 78 fe ff ff         	movq	-392(%rbp), %rax
    436e: 48 05 38 00 00 00            	addq	$56, %rax
    4374: c6 85 ae fe ff ff 01         	movb	$1, -338(%rbp)
    437b: 48 89 c7                     	movq	%rax, %rdi
    437e: 0f b6 b5 ae fe ff ff         	movzbl	-338(%rbp), %esi
    4385: e8 66 f8 ff ff               	callq	0x3bf0 <.text+0x2040>
    438a: 88 45 b7                     	movb	%al, -73(%rbp)
    438d: 88 85 ef fd ff ff            	movb	%al, -529(%rbp)
    4393: 8b b5 94 fe ff ff            	movl	-364(%rbp), %esi
    4399: 48 8b 95 98 fe ff ff         	movq	-360(%rbp), %rdx
    43a0: 48 8b 8d a0 fe ff ff         	movq	-352(%rbp), %rcx
    43a7: 48 8b bd 78 fe ff ff         	movq	-392(%rbp), %rdi
    43ae: e8 7d 04 00 00               	callq	0x4830 <.text+0x2c80>
    43b3: 88 85 ee fd ff ff            	movb	%al, -530(%rbp)
    43b9: 8a 85 ee fd ff ff            	movb	-530(%rbp), %al
    43bf: 0f b6 c8                     	movzbl	%al, %ecx
    43c2: 83 e1 01                     	andl	$1, %ecx
    43c5: 89 cf                        	movl	%ecx, %edi
    43c7: e8 44 da ff ff               	callq	0x1e10 <.text+0x260>
    43cc: 24 01                        	andb	$1, %al
    43ce: 88 85 af fe ff ff            	movb	%al, -337(%rbp)
    43d4: 0f b6 85 af fe ff ff         	movzbl	-337(%rbp), %eax
    43db: 89 c1                        	movl	%eax, %ecx
    43dd: f6 c1 01                     	testb	$1, %cl
    43e0: 74 04                        	je	0x43e6 <.text+0x2836>
    43e2: eb 00                        	jmp	0x43e4 <.text+0x2834>
    43e4: eb 25                        	jmp	0x440b <.text+0x285b>
    43e6: 48 8b 85 00 fe ff ff         	movq	-512(%rbp), %rax
    43ed: 48 2b 85 88 fe ff ff         	subq	-376(%rbp), %rax
    43f4: 0f 92 c1                     	setb	%cl
    43f7: f6 c1 01                     	testb	$1, %cl
    43fa: 48 89 85 e0 fd ff ff         	movq	%rax, -544(%rbp)
    4401: 0f 85 f2 03 00 00            	jne	0x47f9 <.text+0x2c49>
    4407: eb 19                        	jmp	0x4422 <.text+0x2872>
    4409: 0f 0b                        	ud2
    440b: e8 80 f9 ff ff               	callq	0x3d90 <.text+0x21e0>
    4410: e8 3b da ff ff               	callq	0x1e50 <.text+0x2a0>
    4415: 24 01                        	andb	$1, %al
    4417: 88 85 87 fe ff ff            	movb	%al, -377(%rbp)
    441d: e9 75 03 00 00               	jmp	0x4797 <.text+0x2be7>
    4422: c6 85 c5 fe ff ff 01         	movb	$1, -315(%rbp)
    4429: 48 8b bd 78 fe ff ff         	movq	-392(%rbp), %rdi
    4430: 48 8b b5 e0 fd ff ff         	movq	-544(%rbp), %rsi
    4437: 0f b6 95 c5 fe ff ff         	movzbl	-315(%rbp), %edx
    443e: e8 dd 04 00 00               	callq	0x4920 <.text+0x2d70>
    4443: 48 89 85 d8 fd ff ff         	movq	%rax, -552(%rbp)
    444a: 89 95 d4 fd ff ff            	movl	%edx, -556(%rbp)
    4450: 48 8b bd d8 fd ff ff         	movq	-552(%rbp), %rdi
    4457: 8b b5 d4 fd ff ff            	movl	-556(%rbp), %esi
    445d: e8 8e d9 ff ff               	callq	0x1df0 <.text+0x240>
    4462: 89 95 b8 fe ff ff            	movl	%edx, -328(%rbp)
    4468: 48 89 85 b0 fe ff ff         	movq	%rax, -336(%rbp)
    446f: 8b 85 b8 fe ff ff            	movl	-328(%rbp), %eax
    4475: 05 00 00 ef ff               	addl	$4293853184, %eax
    447a: 0f 94 c1                     	sete	%cl
    447d: 0f b6 d1                     	movzbl	%cl, %edx
    4480: 89 d6                        	movl	%edx, %esi
    4482: 75 04                        	jne	0x4488 <.text+0x28d8>
    4484: eb 00                        	jmp	0x4486 <.text+0x28d6>
    4486: eb 64                        	jmp	0x44ec <.text+0x293c>
    4488: 48 8b 85 b0 fe ff ff         	movq	-336(%rbp), %rax
    448f: 8b 8d b8 fe ff ff            	movl	-328(%rbp), %ecx
    4495: 48 89 45 b8                  	movq	%rax, -72(%rbp)
    4499: 89 4d c0                     	movl	%ecx, -64(%rbp)
    449c: 48 89 45 c8                  	movq	%rax, -56(%rbp)
    44a0: 89 4d d0                     	movl	%ecx, -48(%rbp)
    44a3: 48 8b 95 78 fe ff ff         	movq	-392(%rbp), %rdx
    44aa: 48 8b 7a 20                  	movq	32(%rdx), %rdi
    44ae: 48 8b 72 28                  	movq	40(%rdx), %rsi
    44b2: 4c 8b 85 60 fe ff ff         	movq	-416(%rbp), %r8
    44b9: 48 89 b5 c8 fd ff ff         	movq	%rsi, -568(%rbp)
    44c0: 4c 89 c6                     	movq	%r8, %rsi
    44c3: 48 8b 95 68 fe ff ff         	movq	-408(%rbp), %rdx
    44ca: 4c 8b 8d c8 fd ff ff         	movq	-568(%rbp), %r9
    44d1: 48 89 85 c0 fd ff ff         	movq	%rax, -576(%rbp)
    44d8: 89 8d bc fd ff ff            	movl	%ecx, -580(%rbp)
    44de: 41 ff 51 18                  	callq	*24(%r9)
    44e2: 88 85 bb fd ff ff            	movb	%al, -581(%rbp)
    44e8: eb 19                        	jmp	0x4503 <.text+0x2953>
    44ea: 0f 0b                        	ud2
    44ec: e8 9f f8 ff ff               	callq	0x3d90 <.text+0x21e0>
    44f1: e8 5a d9 ff ff               	callq	0x1e50 <.text+0x2a0>
    44f6: 24 01                        	andb	$1, %al
    44f8: 88 85 87 fe ff ff            	movb	%al, -377(%rbp)
    44fe: e9 94 02 00 00               	jmp	0x4797 <.text+0x2be7>
    4503: 8a 85 bb fd ff ff            	movb	-581(%rbp), %al
    4509: 0f b6 c8                     	movzbl	%al, %ecx
    450c: 83 e1 01                     	andl	$1, %ecx
    450f: 89 cf                        	movl	%ecx, %edi
    4511: e8 fa d8 ff ff               	callq	0x1e10 <.text+0x260>
    4516: 24 01                        	andb	$1, %al
    4518: 88 85 c6 fe ff ff            	movb	%al, -314(%rbp)
    451e: 0f b6 85 c6 fe ff ff         	movzbl	-314(%rbp), %eax
    4525: 89 c1                        	movl	%eax, %ecx
    4527: f6 c1 01                     	testb	$1, %cl
    452a: 74 04                        	je	0x4530 <.text+0x2980>
    452c: eb 00                        	jmp	0x452e <.text+0x297e>
    452e: eb 2b                        	jmp	0x455b <.text+0x29ab>
    4530: 48 8b 85 78 fe ff ff         	movq	-392(%rbp), %rax
    4537: 48 8b 50 20                  	movq	32(%rax), %rdx
    453b: 48 8b 48 28                  	movq	40(%rax), %rcx
    453f: 48 8b bd c0 fd ff ff         	movq	-576(%rbp), %rdi
    4546: 8b b5 bc fd ff ff            	movl	-580(%rbp), %esi
    454c: e8 1f f9 ff ff               	callq	0x3e70 <.text+0x22c0>
    4551: 88 85 ba fd ff ff            	movb	%al, -582(%rbp)
    4557: eb 19                        	jmp	0x4572 <.text+0x29c2>
    4559: 0f 0b                        	ud2
    455b: e8 30 f8 ff ff               	callq	0x3d90 <.text+0x21e0>
    4560: e8 eb d8 ff ff               	callq	0x1e50 <.text+0x2a0>
    4565: 24 01                        	andb	$1, %al
    4567: 88 85 87 fe ff ff            	movb	%al, -377(%rbp)
    456d: e9 25 02 00 00               	jmp	0x4797 <.text+0x2be7>
    4572: 8a 85 ba fd ff ff            	movb	-582(%rbp), %al
    4578: 0f b6 c8                     	movzbl	%al, %ecx
    457b: 83 e1 01                     	andl	$1, %ecx
    457e: 89 cf                        	movl	%ecx, %edi
    4580: e8 8b d8 ff ff               	callq	0x1e10 <.text+0x260>
    4585: 24 01                        	andb	$1, %al
    4587: 88 85 c7 fe ff ff            	movb	%al, -313(%rbp)
    458d: 0f b6 85 c7 fe ff ff         	movzbl	-313(%rbp), %eax
    4594: 89 c1                        	movl	%eax, %ecx
    4596: f6 c1 01                     	testb	$1, %cl
    4599: 74 04                        	je	0x459f <.text+0x29ef>
    459b: eb 00                        	jmp	0x459d <.text+0x29ed>
    459d: eb 27                        	jmp	0x45c6 <.text+0x2a16>
    459f: 48 8b 85 78 fe ff ff         	movq	-392(%rbp), %rax
    45a6: 8b 8d fc fd ff ff            	movl	-516(%rbp), %ecx
    45ac: 89 48 34                     	movl	%ecx, 52(%rax)
    45af: 8a 95 ef fd ff ff            	movb	-529(%rbp), %dl
    45b5: 88 50 38                     	movb	%dl, 56(%rax)
    45b8: c6 85 87 fe ff ff 00         	movb	$0, -377(%rbp)
    45bf: e9 d3 01 00 00               	jmp	0x4797 <.text+0x2be7>
    45c4: 0f 0b                        	ud2
    45c6: e8 c5 f7 ff ff               	callq	0x3d90 <.text+0x21e0>
    45cb: e8 80 d8 ff ff               	callq	0x1e50 <.text+0x2a0>
    45d0: 24 01                        	andb	$1, %al
    45d2: 88 85 87 fe ff ff            	movb	%al, -377(%rbp)
    45d8: e9 ba 01 00 00               	jmp	0x4797 <.text+0x2be7>
    45dd: c6 85 dd fe ff ff 01         	movb	$1, -291(%rbp)
    45e4: 48 8b bd 78 fe ff ff         	movq	-392(%rbp), %rdi
    45eb: 48 8b b5 f0 fd ff ff         	movq	-528(%rbp), %rsi
    45f2: 0f b6 95 dd fe ff ff         	movzbl	-291(%rbp), %edx
    45f9: e8 22 03 00 00               	callq	0x4920 <.text+0x2d70>
    45fe: 48 89 85 b0 fd ff ff         	movq	%rax, -592(%rbp)
    4605: 89 95 ac fd ff ff            	movl	%edx, -596(%rbp)
    460b: 48 8b bd b0 fd ff ff         	movq	-592(%rbp), %rdi
    4612: 8b b5 ac fd ff ff            	movl	-596(%rbp), %esi
    4618: e8 d3 d7 ff ff               	callq	0x1df0 <.text+0x240>
    461d: 89 95 d0 fe ff ff            	movl	%edx, -304(%rbp)
    4623: 48 89 85 c8 fe ff ff         	movq	%rax, -312(%rbp)
    462a: 8b 85 d0 fe ff ff            	movl	-304(%rbp), %eax
    4630: 05 00 00 ef ff               	addl	$4293853184, %eax
    4635: 0f 94 c1                     	sete	%cl
    4638: 0f b6 d1                     	movzbl	%cl, %edx
    463b: 89 d6                        	movl	%edx, %esi
    463d: 75 04                        	jne	0x4643 <.text+0x2a93>
    463f: eb 00                        	jmp	0x4641 <.text+0x2a91>
    4641: eb 66                        	jmp	0x46a9 <.text+0x2af9>
    4643: 48 8b 85 c8 fe ff ff         	movq	-312(%rbp), %rax
    464a: 8b 8d d0 fe ff ff            	movl	-304(%rbp), %ecx
    4650: 48 89 45 e0                  	movq	%rax, -32(%rbp)
    4654: 89 4d e8                     	movl	%ecx, -24(%rbp)
    4657: 48 89 45 f0                  	movq	%rax, -16(%rbp)
    465b: 89 4d f8                     	movl	%ecx, -8(%rbp)
    465e: 8b b5 94 fe ff ff            	movl	-364(%rbp), %esi
    4664: 48 8b 95 98 fe ff ff         	movq	-360(%rbp), %rdx
    466b: 48 8b bd a0 fe ff ff         	movq	-352(%rbp), %rdi
    4672: 4c 8b 85 78 fe ff ff         	movq	-392(%rbp), %r8
    4679: 48 89 bd a0 fd ff ff         	movq	%rdi, -608(%rbp)
    4680: 4c 89 c7                     	movq	%r8, %rdi
    4683: 4c 8b 8d a0 fd ff ff         	movq	-608(%rbp), %r9
    468a: 89 8d 9c fd ff ff            	movl	%ecx, -612(%rbp)
    4690: 4c 89 c9                     	movq	%r9, %rcx
    4693: 48 89 85 90 fd ff ff         	movq	%rax, -624(%rbp)
    469a: e8 91 01 00 00               	callq	0x4830 <.text+0x2c80>
    469f: 88 85 8f fd ff ff            	movb	%al, -625(%rbp)
    46a5: eb 19                        	jmp	0x46c0 <.text+0x2b10>
    46a7: 0f 0b                        	ud2
    46a9: e8 e2 f6 ff ff               	callq	0x3d90 <.text+0x21e0>
    46ae: e8 9d d7 ff ff               	callq	0x1e50 <.text+0x2a0>
    46b3: 24 01                        	andb	$1, %al
    46b5: 88 85 87 fe ff ff            	movb	%al, -377(%rbp)
    46bb: e9 d7 00 00 00               	jmp	0x4797 <.text+0x2be7>
    46c0: 8a 85 8f fd ff ff            	movb	-625(%rbp), %al
    46c6: 0f b6 c8                     	movzbl	%al, %ecx
    46c9: 83 e1 01                     	andl	$1, %ecx
    46cc: 89 cf                        	movl	%ecx, %edi
    46ce: e8 3d d7 ff ff               	callq	0x1e10 <.text+0x260>
    46d3: 24 01                        	andb	$1, %al
    46d5: 88 85 de fe ff ff            	movb	%al, -290(%rbp)
    46db: 0f b6 85 de fe ff ff         	movzbl	-290(%rbp), %eax
    46e2: 89 c1                        	movl	%eax, %ecx
    46e4: f6 c1 01                     	testb	$1, %cl
    46e7: 74 04                        	je	0x46ed <.text+0x2b3d>
    46e9: eb 00                        	jmp	0x46eb <.text+0x2b3b>
    46eb: eb 2a                        	jmp	0x4717 <.text+0x2b67>
    46ed: 48 8b 85 78 fe ff ff         	movq	-392(%rbp), %rax
    46f4: 48 8b 78 20                  	movq	32(%rax), %rdi
    46f8: 48 8b 48 28                  	movq	40(%rax), %rcx
    46fc: 48 8b b5 60 fe ff ff         	movq	-416(%rbp), %rsi
    4703: 48 8b 95 68 fe ff ff         	movq	-408(%rbp), %rdx
    470a: ff 51 18                     	callq	*24(%rcx)
    470d: 88 85 8e fd ff ff            	movb	%al, -626(%rbp)
    4713: eb 16                        	jmp	0x472b <.text+0x2b7b>
    4715: 0f 0b                        	ud2
    4717: e8 74 f6 ff ff               	callq	0x3d90 <.text+0x21e0>
    471c: e8 2f d7 ff ff               	callq	0x1e50 <.text+0x2a0>
    4721: 24 01                        	andb	$1, %al
    4723: 88 85 87 fe ff ff            	movb	%al, -377(%rbp)
    4729: eb 6c                        	jmp	0x4797 <.text+0x2be7>
    472b: 8a 85 8e fd ff ff            	movb	-626(%rbp), %al
    4731: 0f b6 c8                     	movzbl	%al, %ecx
    4734: 83 e1 01                     	andl	$1, %ecx
    4737: 89 cf                        	movl	%ecx, %edi
    4739: e8 d2 d6 ff ff               	callq	0x1e10 <.text+0x260>
    473e: 24 01                        	andb	$1, %al
    4740: 88 85 df fe ff ff            	movb	%al, -289(%rbp)
    4746: 0f b6 85 df fe ff ff         	movzbl	-289(%rbp), %eax
    474d: 89 c1                        	movl	%eax, %ecx
    474f: f6 c1 01                     	testb	$1, %cl
    4752: 74 04                        	je	0x4758 <.text+0x2ba8>
    4754: eb 00                        	jmp	0x4756 <.text+0x2ba6>
    4756: eb 2d                        	jmp	0x4785 <.text+0x2bd5>
    4758: 48 8b 85 78 fe ff ff         	movq	-392(%rbp), %rax
    475f: 48 8b 50 20                  	movq	32(%rax), %rdx
    4763: 48 8b 48 28                  	movq	40(%rax), %rcx
    4767: 48 8b bd 90 fd ff ff         	movq	-624(%rbp), %rdi
    476e: 8b b5 9c fd ff ff            	movl	-612(%rbp), %esi
    4774: e8 f7 f6 ff ff               	callq	0x3e70 <.text+0x22c0>
    4779: 24 01                        	andb	$1, %al
    477b: 88 85 87 fe ff ff            	movb	%al, -377(%rbp)
    4781: eb 14                        	jmp	0x4797 <.text+0x2be7>
    4783: 0f 0b                        	ud2
    4785: e8 06 f6 ff ff               	callq	0x3d90 <.text+0x21e0>
    478a: e8 c1 d6 ff ff               	callq	0x1e50 <.text+0x2a0>
    478f: 24 01                        	andb	$1, %al
    4791: 88 85 87 fe ff ff            	movb	%al, -377(%rbp)
    4797: 8a 85 87 fe ff ff            	movb	-377(%rbp), %al
    479d: 24 01                        	andb	$1, %al
    479f: 0f b6 c0                     	movzbl	%al, %eax
    47a2: 48 81 c4 80 02 00 00         	addq	$640, %rsp
    47a9: 5d                           	popq	%rbp
    47aa: c3                           	retq
    47ab: 48 8d 3d ae c2 ff ff         	leaq	-15698(%rip), %rdi  # a60
    47b2: 48 8d 15 ef 1c 00 00         	leaq	7407(%rip), %rdx  # 64a8
    47b9: be 1c 00 00 00               	movl	$28, %esi
    47be: e8 9d d5 ff ff               	callq	0x1d60 <.text+0x1b0>
    47c3: 0f 0b                        	ud2
    47c5: 48 8d 3d 94 c2 ff ff         	leaq	-15724(%rip), %rdi  # a60
    47cc: 48 8d 15 ed 1c 00 00         	leaq	7405(%rip), %rdx  # 64c0
    47d3: be 1c 00 00 00               	movl	$28, %esi
    47d8: e8 83 d5 ff ff               	callq	0x1d60 <.text+0x1b0>
    47dd: 0f 0b                        	ud2
    47df: 48 8d 3d 7a c2 ff ff         	leaq	-15750(%rip), %rdi  # a60
    47e6: 48 8d 15 eb 1c 00 00         	leaq	7403(%rip), %rdx  # 64d8
    47ed: be 1c 00 00 00               	movl	$28, %esi
    47f2: e8 69 d5 ff ff               	callq	0x1d60 <.text+0x1b0>
    47f7: 0f 0b                        	ud2
    47f9: 48 8d 3d 30 c2 ff ff         	leaq	-15824(%rip), %rdi  # a30
    4800: 48 8d 15 e9 1c 00 00         	leaq	7401(%rip), %rdx  # 64f0
    4807: be 21 00 00 00               	movl	$33, %esi
    480c: e8 4f d5 ff ff               	callq	0x1d60 <.text+0x1b0>
    4811: 0f 0b                        	ud2
    4813: 48 8d 3d 16 c2 ff ff         	leaq	-15850(%rip), %rdi  # a30
    481a: 48 8d 15 e7 1c 00 00         	leaq	7399(%rip), %rdx  # 6508
    4821: be 21 00 00 00               	movl	$33, %esi
    4826: e8 35 d5 ff ff               	callq	0x1d60 <.text+0x1b0>
    482b: 0f 0b                        	ud2
    482d: cc                           	int3
    482e: cc                           	int3
    482f: cc                           	int3
    4830: 55                           	pushq	%rbp
    4831: 48 89 e5                     	movq	%rsp, %rbp
    4834: 48 83 ec 60                  	subq	$96, %rsp
    4838: 31 c0                        	xorl	%eax, %eax
    483a: 41 89 c0                     	movl	%eax, %r8d
    483d: 89 75 bc                     	movl	%esi, -68(%rbp)
    4840: 48 89 55 c0                  	movq	%rdx, -64(%rbp)
    4844: 48 89 4d c8                  	movq	%rcx, -56(%rbp)
    4848: 48 89 7d d8                  	movq	%rdi, -40(%rbp)
    484c: 8b 45 bc                     	movl	-68(%rbp), %eax
    484f: 2d 00 00 11 00               	subl	$1114112, %eax
    4854: 83 f8 00                     	cmpl	$0, %eax
    4857: b9 01 00 00 00               	movl	$1, %ecx
    485c: 49 0f 44 c8                  	cmoveq	%r8, %rcx
    4860: 48 83 f9 01                  	cmpq	$1, %rcx
    4864: 48 89 7d b0                  	movq	%rdi, -80(%rbp)
    4868: 74 02                        	je	0x486c <.text+0x2cbc>
    486a: eb 53                        	jmp	0x48bf <.text+0x2d0f>
    486c: 8b 45 bc                     	movl	-68(%rbp), %eax
    486f: 89 45 ec                     	movl	%eax, -20(%rbp)
    4872: 48 8b 4d b0                  	movq	-80(%rbp), %rcx
    4876: 48 8b 79 20                  	movq	32(%rcx), %rdi
    487a: 48 8b 51 28                  	movq	40(%rcx), %rdx
    487e: 89 c6                        	movl	%eax, %esi
    4880: ff 52 20                     	callq	*32(%rdx)
    4883: 88 45 af                     	movb	%al, -81(%rbp)
    4886: 8a 45 af                     	movb	-81(%rbp), %al
    4889: 0f b6 c8                     	movzbl	%al, %ecx
    488c: 83 e1 01                     	andl	$1, %ecx
    488f: 89 cf                        	movl	%ecx, %edi
    4891: e8 7a d5 ff ff               	callq	0x1e10 <.text+0x260>
    4896: 24 01                        	andb	$1, %al
    4898: 88 45 d7                     	movb	%al, -41(%rbp)
    489b: 0f b6 45 d7                  	movzbl	-41(%rbp), %eax
    489f: 89 c1                        	movl	%eax, %ecx
    48a1: f6 c1 01                     	testb	$1, %cl
    48a4: 74 04                        	je	0x48aa <.text+0x2cfa>
    48a6: eb 00                        	jmp	0x48a8 <.text+0x2cf8>
    48a8: eb 04                        	jmp	0x48ae <.text+0x2cfe>
    48aa: eb 13                        	jmp	0x48bf <.text+0x2d0f>
    48ac: 0f 0b                        	ud2
    48ae: e8 dd f4 ff ff               	callq	0x3d90 <.text+0x21e0>
    48b3: e8 98 d5 ff ff               	callq	0x1e50 <.text+0x2a0>
    48b8: 24 01                        	andb	$1, %al
    48ba: 88 45 d6                     	movb	%al, -42(%rbp)
    48bd: eb 50                        	jmp	0x490f <.text+0x2d5f>
    48bf: 31 c0                        	xorl	%eax, %eax
    48c1: 89 c1                        	movl	%eax, %ecx
    48c3: 48 83 7d c0 00               	cmpq	$0, -64(%rbp)
    48c8: ba 01 00 00 00               	movl	$1, %edx
    48cd: 48 0f 44 d1                  	cmoveq	%rcx, %rdx
    48d1: 48 83 fa 01                  	cmpq	$1, %rdx
    48d5: 74 06                        	je	0x48dd <.text+0x2d2d>
    48d7: c6 45 d6 00                  	movb	$0, -42(%rbp)
    48db: eb 32                        	jmp	0x490f <.text+0x2d5f>
    48dd: 48 8b 45 c0                  	movq	-64(%rbp), %rax
    48e1: 48 8b 4d c8                  	movq	-56(%rbp), %rcx
    48e5: 48 89 45 f0                  	movq	%rax, -16(%rbp)
    48e9: 48 89 4d f8                  	movq	%rcx, -8(%rbp)
    48ed: 48 8b 55 b0                  	movq	-80(%rbp), %rdx
    48f1: 48 8b 7a 20                  	movq	32(%rdx), %rdi
    48f5: 48 8b 72 28                  	movq	40(%rdx), %rsi
    48f9: 48 89 75 a0                  	movq	%rsi, -96(%rbp)
    48fd: 48 89 c6                     	movq	%rax, %rsi
    4900: 48 89 ca                     	movq	%rcx, %rdx
    4903: 48 8b 45 a0                  	movq	-96(%rbp), %rax
    4907: ff 50 18                     	callq	*24(%rax)
    490a: 24 01                        	andb	$1, %al
    490c: 88 45 d6                     	movb	%al, -42(%rbp)
    490f: 8a 45 d6                     	movb	-42(%rbp), %al
    4912: 24 01                        	andb	$1, %al
    4914: 0f b6 c0                     	movzbl	%al, %eax
    4917: 48 83 c4 60                  	addq	$96, %rsp
    491b: 5d                           	popq	%rbp
    491c: c3                           	retq
    491d: cc                           	int3
    491e: cc                           	int3
    491f: cc                           	int3
    4920: 55                           	pushq	%rbp
    4921: 48 89 e5                     	movq	%rsp, %rbp
    4924: 48 81 ec 00 01 00 00         	subq	$256, %rsp
    492b: 48 89 7d b8                  	movq	%rdi, -72(%rbp)
    492f: 48 89 75 c0                  	movq	%rsi, -64(%rbp)
    4933: 88 55 cf                     	movb	%dl, -49(%rbp)
    4936: 0f b6 47 38                  	movzbl	56(%rdi), %eax
    493a: 89 c1                        	movl	%eax, %ecx
    493c: 48 83 f9 03                  	cmpq	$3, %rcx
    4940: 48 89 b5 50 ff ff ff         	movq	%rsi, -176(%rbp)
    4947: 48 89 bd 48 ff ff ff         	movq	%rdi, -184(%rbp)
    494e: 88 95 47 ff ff ff            	movb	%dl, -185(%rbp)
    4954: 74 12                        	je	0x4968 <.text+0x2db8>
    4956: 48 8b 85 48 ff ff ff         	movq	-184(%rbp), %rax
    495d: 8a 48 38                     	movb	56(%rax), %cl
    4960: 88 8d 6f ff ff ff            	movb	%cl, -145(%rbp)
    4966: eb 0c                        	jmp	0x4974 <.text+0x2dc4>
    4968: 8a 85 47 ff ff ff            	movb	-185(%rbp), %al
    496e: 88 85 6f ff ff ff            	movb	%al, -145(%rbp)
    4974: 0f b6 85 6f ff ff ff         	movzbl	-145(%rbp), %eax
    497b: 89 c1                        	movl	%eax, %ecx
    497d: 48 89 8d 38 ff ff ff         	movq	%rcx, -200(%rbp)
    4984: 48 8d 05 8d c0 ff ff         	leaq	-16243(%rip), %rax  # a18
    498b: 48 8b 8d 38 ff ff ff         	movq	-200(%rbp), %rcx
    4992: 48 63 14 88                  	movslq	(%rax,%rcx,4), %rdx
    4996: 48 01 c2                     	addq	%rax, %rdx
    4999: ff e2                        	jmpq	*%rdx
    499b: 48 8b 85 50 ff ff ff         	movq	-176(%rbp), %rax
    49a2: 48 c1 e8 01                  	shrq	$1, %rax
    49a6: 48 8b 8d 50 ff ff ff         	movq	-176(%rbp), %rcx
    49ad: 48 81 c1 01 00 00 00         	addq	$1, %rcx
    49b4: 0f 92 c2                     	setb	%dl
    49b7: f6 c2 01                     	testb	$1, %dl
    49ba: 48 89 85 30 ff ff ff         	movq	%rax, -208(%rbp)
    49c1: 48 89 8d 28 ff ff ff         	movq	%rcx, -216(%rbp)
    49c8: 0f 85 97 01 00 00            	jne	0x4b65 <.text+0x2fb5>
    49ce: eb 38                        	jmp	0x4a08 <.text+0x2e58>
    49d0: 0f 0b                        	ud2
    49d2: 48 c7 85 70 ff ff ff 00 00 00 00     	movq	$0, -144(%rbp)
    49dd: 48 8b 85 50 ff ff ff         	movq	-176(%rbp), %rax
    49e4: 48 89 85 78 ff ff ff         	movq	%rax, -136(%rbp)
    49eb: eb 3b                        	jmp	0x4a28 <.text+0x2e78>
    49ed: 48 8b 85 50 ff ff ff         	movq	-176(%rbp), %rax
    49f4: 48 89 85 70 ff ff ff         	movq	%rax, -144(%rbp)
    49fb: 48 c7 85 78 ff ff ff 00 00 00 00     	movq	$0, -136(%rbp)
    4a06: eb 20                        	jmp	0x4a28 <.text+0x2e78>
    4a08: 48 8b 85 28 ff ff ff         	movq	-216(%rbp), %rax
    4a0f: 48 c1 e8 01                  	shrq	$1, %rax
    4a13: 48 8b 8d 30 ff ff ff         	movq	-208(%rbp), %rcx
    4a1a: 48 89 8d 70 ff ff ff         	movq	%rcx, -144(%rbp)
    4a21: 48 89 85 78 ff ff ff         	movq	%rax, -136(%rbp)
    4a28: 48 8b 85 70 ff ff ff         	movq	-144(%rbp), %rax
    4a2f: 48 89 45 e0                  	movq	%rax, -32(%rbp)
    4a33: 48 8b 8d 78 ff ff ff         	movq	-136(%rbp), %rcx
    4a3a: 48 89 4d e8                  	movq	%rcx, -24(%rbp)
    4a3e: 48 c7 45 80 00 00 00 00      	movq	$0, -128(%rbp)
    4a46: 48 89 45 88                  	movq	%rax, -120(%rbp)
    4a4a: 48 8b 7d 80                  	movq	-128(%rbp), %rdi
    4a4e: 48 8b 75 88                  	movq	-120(%rbp), %rsi
    4a52: 48 89 8d 20 ff ff ff         	movq	%rcx, -224(%rbp)
    4a59: e8 42 05 00 00               	callq	0x4fa0 <.text+0x33f0>
    4a5e: 48 89 85 18 ff ff ff         	movq	%rax, -232(%rbp)
    4a65: 48 89 95 10 ff ff ff         	movq	%rdx, -240(%rbp)
    4a6c: 48 8b 85 18 ff ff ff         	movq	-232(%rbp), %rax
    4a73: 48 89 45 90                  	movq	%rax, -112(%rbp)
    4a77: 48 8b 8d 10 ff ff ff         	movq	-240(%rbp), %rcx
    4a7e: 48 89 4d 98                  	movq	%rcx, -104(%rbp)
    4a82: 48 8d 7d 90                  	leaq	-112(%rbp), %rdi
    4a86: e8 75 04 00 00               	callq	0x4f00 <.text+0x3350>
    4a8b: 48 89 55 a8                  	movq	%rdx, -88(%rbp)
    4a8f: 48 89 45 a0                  	movq	%rax, -96(%rbp)
    4a93: 48 8b 45 a0                  	movq	-96(%rbp), %rax
    4a97: 48 85 c0                     	testq	%rax, %rax
    4a9a: 74 04                        	je	0x4aa0 <.text+0x2ef0>
    4a9c: eb 00                        	jmp	0x4a9e <.text+0x2eee>
    4a9e: eb 27                        	jmp	0x4ac7 <.text+0x2f17>
    4aa0: 48 8b 85 48 ff ff ff         	movq	-184(%rbp), %rax
    4aa7: 8b 78 34                     	movl	52(%rax), %edi
    4aaa: 48 8b b5 20 ff ff ff         	movq	-224(%rbp), %rsi
    4ab1: e8 8a f3 ff ff               	callq	0x3e40 <.text+0x2290>
    4ab6: 48 89 85 08 ff ff ff         	movq	%rax, -248(%rbp)
    4abd: 89 95 04 ff ff ff            	movl	%edx, -252(%rbp)
    4ac3: eb 70                        	jmp	0x4b35 <.text+0x2f85>
    4ac5: 0f 0b                        	ud2
    4ac7: 48 8b 45 a8                  	movq	-88(%rbp), %rax
    4acb: 48 89 45 f0                  	movq	%rax, -16(%rbp)
    4acf: 48 89 45 f8                  	movq	%rax, -8(%rbp)
    4ad3: 48 8b 85 48 ff ff ff         	movq	-184(%rbp), %rax
    4ada: 48 8b 78 20                  	movq	32(%rax), %rdi
    4ade: 48 8b 48 28                  	movq	40(%rax), %rcx
    4ae2: 8b 70 34                     	movl	52(%rax), %esi
    4ae5: ff 51 20                     	callq	*32(%rcx)
    4ae8: 88 85 03 ff ff ff            	movb	%al, -253(%rbp)
    4aee: 8a 85 03 ff ff ff            	movb	-253(%rbp), %al
    4af4: 0f b6 c8                     	movzbl	%al, %ecx
    4af7: 83 e1 01                     	andl	$1, %ecx
    4afa: 89 cf                        	movl	%ecx, %edi
    4afc: e8 0f d3 ff ff               	callq	0x1e10 <.text+0x260>
    4b01: 24 01                        	andb	$1, %al
    4b03: 88 45 b7                     	movb	%al, -73(%rbp)
    4b06: 0f b6 45 b7                  	movzbl	-73(%rbp), %eax
    4b0a: 89 c1                        	movl	%eax, %ecx
    4b0c: f6 c1 01                     	testb	$1, %cl
    4b0f: 74 04                        	je	0x4b15 <.text+0x2f65>
    4b11: eb 00                        	jmp	0x4b13 <.text+0x2f63>
    4b13: eb 07                        	jmp	0x4b1c <.text+0x2f6c>
    4b15: e9 68 ff ff ff               	jmp	0x4a82 <.text+0x2ed2>
    4b1a: 0f 0b                        	ud2
    4b1c: e8 6f f2 ff ff               	callq	0x3d90 <.text+0x21e0>
    4b21: e8 0a d3 ff ff               	callq	0x1e30 <.text+0x280>
    4b26: 89 95 60 ff ff ff            	movl	%edx, -160(%rbp)
    4b2c: 48 89 85 58 ff ff ff         	movq	%rax, -168(%rbp)
    4b33: eb 1a                        	jmp	0x4b4f <.text+0x2f9f>
    4b35: 48 8b 85 08 ff ff ff         	movq	-248(%rbp), %rax
    4b3c: 48 89 85 58 ff ff ff         	movq	%rax, -168(%rbp)
    4b43: 8b 8d 04 ff ff ff            	movl	-252(%rbp), %ecx
    4b49: 89 8d 60 ff ff ff            	movl	%ecx, -160(%rbp)
    4b4f: 48 8b 85 58 ff ff ff         	movq	-168(%rbp), %rax
    4b56: 8b 95 60 ff ff ff            	movl	-160(%rbp), %edx
    4b5c: 48 81 c4 00 01 00 00         	addq	$256, %rsp
    4b63: 5d                           	popq	%rbp
    4b64: c3                           	retq
    4b65: 48 8d 3d f4 be ff ff         	leaq	-16652(%rip), %rdi  # a60
    4b6c: 48 8d 15 ad 19 00 00         	leaq	6573(%rip), %rdx  # 6520
    4b73: be 1c 00 00 00               	movl	$28, %esi
    4b78: e8 e3 d1 ff ff               	callq	0x1d60 <.text+0x1b0>
    4b7d: 0f 0b                        	ud2
    4b7f: cc                           	int3
    4b80: 55                           	pushq	%rbp
    4b81: 48 89 e5                     	movq	%rsp, %rbp
    4b84: 50                           	pushq	%rax
    4b85: 48 89 7d f8                  	movq	%rdi, -8(%rbp)
    4b89: 8b 47 30                     	movl	48(%rdi), %eax
    4b8c: 83 e0 01                     	andl	$1, %eax
    4b8f: 83 f8 00                     	cmpl	$0, %eax
    4b92: 0f 95 c1                     	setne	%cl
    4b95: 80 e1 01                     	andb	$1, %cl
    4b98: 0f b6 c1                     	movzbl	%cl, %eax
    4b9b: 48 83 c4 08                  	addq	$8, %rsp
    4b9f: 5d                           	popq	%rbp
    4ba0: c3                           	retq
    4ba1: cc                           	int3
    4ba2: cc                           	int3
    4ba3: cc                           	int3
    4ba4: cc                           	int3
    4ba5: cc                           	int3
    4ba6: cc                           	int3
    4ba7: cc                           	int3
    4ba8: cc                           	int3
    4ba9: cc                           	int3
    4baa: cc                           	int3
    4bab: cc                           	int3
    4bac: cc                           	int3
    4bad: cc                           	int3
    4bae: cc                           	int3
    4baf: cc                           	int3
    4bb0: 55                           	pushq	%rbp
    4bb1: 48 89 e5                     	movq	%rsp, %rbp
    4bb4: 50                           	pushq	%rax
    4bb5: 48 89 7d f8                  	movq	%rdi, -8(%rbp)
    4bb9: 8b 47 30                     	movl	48(%rdi), %eax
    4bbc: 83 e0 04                     	andl	$4, %eax
    4bbf: 83 f8 00                     	cmpl	$0, %eax
    4bc2: 0f 95 c1                     	setne	%cl
    4bc5: 80 e1 01                     	andb	$1, %cl
    4bc8: 0f b6 c1                     	movzbl	%cl, %eax
    4bcb: 48 83 c4 08                  	addq	$8, %rsp
    4bcf: 5d                           	popq	%rbp
    4bd0: c3                           	retq
    4bd1: cc                           	int3
    4bd2: cc                           	int3
    4bd3: cc                           	int3
    4bd4: cc                           	int3
    4bd5: cc                           	int3
    4bd6: cc                           	int3
    4bd7: cc                           	int3
    4bd8: cc                           	int3
    4bd9: cc                           	int3
    4bda: cc                           	int3
    4bdb: cc                           	int3
    4bdc: cc                           	int3
    4bdd: cc                           	int3
    4bde: cc                           	int3
    4bdf: cc                           	int3
    4be0: 55                           	pushq	%rbp
    4be1: 48 89 e5                     	movq	%rsp, %rbp
    4be4: 50                           	pushq	%rax
    4be5: 48 89 7d f8                  	movq	%rdi, -8(%rbp)
    4be9: 8b 47 30                     	movl	48(%rdi), %eax
    4bec: 83 e0 08                     	andl	$8, %eax
    4bef: 83 f8 00                     	cmpl	$0, %eax
    4bf2: 0f 95 c1                     	setne	%cl
    4bf5: 80 e1 01                     	andb	$1, %cl
    4bf8: 0f b6 c1                     	movzbl	%cl, %eax
    4bfb: 48 83 c4 08                  	addq	$8, %rsp
    4bff: 5d                           	popq	%rbp
    4c00: c3                           	retq
    4c01: cc                           	int3
    4c02: cc                           	int3
    4c03: cc                           	int3
    4c04: cc                           	int3
    4c05: cc                           	int3
    4c06: cc                           	int3
    4c07: cc                           	int3
    4c08: cc                           	int3
    4c09: cc                           	int3
    4c0a: cc                           	int3
    4c0b: cc                           	int3
    4c0c: cc                           	int3
    4c0d: cc                           	int3
    4c0e: cc                           	int3
    4c0f: cc                           	int3
    4c10: 55                           	pushq	%rbp
    4c11: 48 89 e5                     	movq	%rsp, %rbp
    4c14: 48 83 ec 30                  	subq	$48, %rsp
    4c18: 48 89 7d e8                  	movq	%rdi, -24(%rbp)
    4c1c: 48 89 75 f0                  	movq	%rsi, -16(%rbp)
    4c20: e8 6b e0 ff ff               	callq	0x2c90 <.text+0x10e0>
    4c25: 48 89 45 e0                  	movq	%rax, -32(%rbp)
    4c29: 48 89 55 d8                  	movq	%rdx, -40(%rbp)
    4c2d: 48 8b 45 e0                  	movq	-32(%rbp), %rax
    4c31: 48 8b 55 d8                  	movq	-40(%rbp), %rdx
    4c35: 48 83 c4 30                  	addq	$48, %rsp
    4c39: 5d                           	popq	%rbp
    4c3a: c3                           	retq
    4c3b: cc                           	int3
    4c3c: cc                           	int3
    4c3d: cc                           	int3
    4c3e: cc                           	int3
    4c3f: cc                           	int3
    4c40: 55                           	pushq	%rbp
    4c41: 48 89 e5                     	movq	%rsp, %rbp
    4c44: 48 83 ec 30                  	subq	$48, %rsp
    4c48: 48 89 7d e8                  	movq	%rdi, -24(%rbp)
    4c4c: 48 89 75 f0                  	movq	%rsi, -16(%rbp)
    4c50: e8 3b d0 ff ff               	callq	0x1c90 <.text+0xe0>
    4c55: 48 89 45 e0                  	movq	%rax, -32(%rbp)
    4c59: 48 89 55 d8                  	movq	%rdx, -40(%rbp)
    4c5d: 48 8b 45 e0                  	movq	-32(%rbp), %rax
    4c61: 48 8b 55 d8                  	movq	-40(%rbp), %rdx
    4c65: 48 83 c4 30                  	addq	$48, %rsp
    4c69: 5d                           	popq	%rbp
    4c6a: c3                           	retq
    4c6b: cc                           	int3
    4c6c: cc                           	int3
    4c6d: cc                           	int3
    4c6e: cc                           	int3
    4c6f: cc                           	int3
    4c70: 55                           	pushq	%rbp
    4c71: 48 89 e5                     	movq	%rsp, %rbp
    4c74: 48 83 ec 50                  	subq	$80, %rsp
    4c78: 48 89 7d b8                  	movq	%rdi, -72(%rbp)
    4c7c: 48 89 75 c0                  	movq	%rsi, -64(%rbp)
    4c80: 48 89 55 f0                  	movq	%rdx, -16(%rbp)
    4c84: 48 89 55 d0                  	movq	%rdx, -48(%rbp)
    4c88: 48 8d 7d b8                  	leaq	-72(%rbp), %rdi
    4c8c: e8 6f 01 00 00               	callq	0x4e00 <.text+0x3250>
    4c91: 48 89 45 d8                  	movq	%rax, -40(%rbp)
    4c95: 31 c0                        	xorl	%eax, %eax
    4c97: 89 c1                        	movl	%eax, %ecx
    4c99: 48 83 7d d8 00               	cmpq	$0, -40(%rbp)
    4c9e: ba 01 00 00 00               	movl	$1, %edx
    4ca3: 48 0f 44 d1                  	cmoveq	%rcx, %rdx
    4ca7: 48 83 fa 01                  	cmpq	$1, %rdx
    4cab: 74 02                        	je	0x4caf <.text+0x30ff>
    4cad: eb 33                        	jmp	0x4ce2 <.text+0x3132>
    4caf: 48 8b 45 d8                  	movq	-40(%rbp), %rax
    4cb3: 48 89 45 f8                  	movq	%rax, -8(%rbp)
    4cb7: 48 8b 4d d0                  	movq	-48(%rbp), %rcx
    4cbb: 48 89 4d e0                  	movq	%rcx, -32(%rbp)
    4cbf: 48 89 45 e8                  	movq	%rax, -24(%rbp)
    4cc3: 48 8b 75 e0                  	movq	-32(%rbp), %rsi
    4cc7: 48 8b 55 e8                  	movq	-24(%rbp), %rdx
    4ccb: 48 8d 7d c8                  	leaq	-56(%rbp), %rdi
    4ccf: e8 fc df ff ff               	callq	0x2cd0 <.text+0x1120>
    4cd4: 48 89 45 b0                  	movq	%rax, -80(%rbp)
    4cd8: 48 8b 45 b0                  	movq	-80(%rbp), %rax
    4cdc: 48 89 45 d0                  	movq	%rax, -48(%rbp)
    4ce0: eb a6                        	jmp	0x4c88 <.text+0x30d8>
    4ce2: eb 00                        	jmp	0x4ce4 <.text+0x3134>
    4ce4: eb 00                        	jmp	0x4ce6 <.text+0x3136>
    4ce6: 48 8b 45 d0                  	movq	-48(%rbp), %rax
    4cea: 48 83 c4 50                  	addq	$80, %rsp
    4cee: 5d                           	popq	%rbp
    4cef: c3                           	retq
    4cf0: 55                           	pushq	%rbp
    4cf1: 48 89 e5                     	movq	%rsp, %rbp
    4cf4: 48 83 ec 20                  	subq	$32, %rsp
    4cf8: 48 89 7d e8                  	movq	%rdi, -24(%rbp)
    4cfc: 48 89 75 f0                  	movq	%rsi, -16(%rbp)
    4d00: 48 8b 45 e8                  	movq	-24(%rbp), %rax
    4d04: 48 85 c0                     	testq	%rax, %rax
    4d07: 48 89 55 e0                  	movq	%rdx, -32(%rbp)
    4d0b: 74 04                        	je	0x4d11 <.text+0x3161>
    4d0d: eb 00                        	jmp	0x4d0f <.text+0x315f>
    4d0f: eb 19                        	jmp	0x4d2a <.text+0x317a>
    4d11: 48 8d 3d d4 bd ff ff         	leaq	-16940(%rip), %rdi  # aec
    4d18: be 2b 00 00 00               	movl	$43, %esi
    4d1d: 48 8b 55 e0                  	movq	-32(%rbp), %rdx
    4d21: e8 3a d0 ff ff               	callq	0x1d60 <.text+0x1b0>
    4d26: 0f 0b                        	ud2
    4d28: 0f 0b                        	ud2
    4d2a: 48 8b 45 f0                  	movq	-16(%rbp), %rax
    4d2e: 48 89 45 f8                  	movq	%rax, -8(%rbp)
    4d32: 48 83 c4 20                  	addq	$32, %rsp
    4d36: 5d                           	popq	%rbp
    4d37: c3                           	retq
    4d38: cc                           	int3
    4d39: cc                           	int3
    4d3a: cc                           	int3
    4d3b: cc                           	int3
    4d3c: cc                           	int3
    4d3d: cc                           	int3
    4d3e: cc                           	int3
    4d3f: cc                           	int3
    4d40: 55                           	pushq	%rbp
    4d41: 48 89 e5                     	movq	%rsp, %rbp
    4d44: 48 83 ec 70                  	subq	$112, %rsp
    4d48: 48 89 7d e8                  	movq	%rdi, -24(%rbp)
    4d4c: 48 89 75 f0                  	movq	%rsi, -16(%rbp)
    4d50: 48 89 7d c8                  	movq	%rdi, -56(%rbp)
    4d54: 48 89 75 c0                  	movq	%rsi, -64(%rbp)
    4d58: e8 73 04 00 00               	callq	0x51d0 <.text+0x3620>
    4d5d: 48 89 45 f8                  	movq	%rax, -8(%rbp)
    4d61: 48 89 45 b8                  	movq	%rax, -72(%rbp)
    4d65: 48 8b 7d b8                  	movq	-72(%rbp), %rdi
    4d69: e8 e2 e0 ff ff               	callq	0x2e50 <.text+0x12a0>
    4d6e: eb 00                        	jmp	0x4d70 <.text+0x31c0>
    4d70: b8 01 00 00 00               	movl	$1, %eax
    4d75: 48 83 f8 00                  	cmpq	$0, %rax
    4d79: 75 13                        	jne	0x4d8e <.text+0x31de>
    4d7b: 48 8b 7d c8                  	movq	-56(%rbp), %rdi
    4d7f: 48 8b 75 c0                  	movq	-64(%rbp), %rsi
    4d83: e8 18 04 00 00               	callq	0x51a0 <.text+0x35f0>
    4d88: 48 89 45 b0                  	movq	%rax, -80(%rbp)
    4d8c: eb 13                        	jmp	0x4da1 <.text+0x31f1>
    4d8e: 48 8b 7d c8                  	movq	-56(%rbp), %rdi
    4d92: 48 8b 75 c0                  	movq	-64(%rbp), %rsi
    4d96: e8 05 04 00 00               	callq	0x51a0 <.text+0x35f0>
    4d9b: 48 89 45 a8                  	movq	%rax, -88(%rbp)
    4d9f: eb 1b                        	jmp	0x4dbc <.text+0x320c>
    4da1: 48 8b 7d b8                  	movq	-72(%rbp), %rdi
    4da5: 48 8b 75 b0                  	movq	-80(%rbp), %rsi
    4da9: e8 12 e2 ff ff               	callq	0x2fc0 <.text+0x1410>
    4dae: 48 89 45 a0                  	movq	%rax, -96(%rbp)
    4db2: 48 8b 45 a0                  	movq	-96(%rbp), %rax
    4db6: 48 89 45 e0                  	movq	%rax, -32(%rbp)
    4dba: eb 11                        	jmp	0x4dcd <.text+0x321d>
    4dbc: 48 8b 7d b8                  	movq	-72(%rbp), %rdi
    4dc0: 48 8b 75 a8                  	movq	-88(%rbp), %rsi
    4dc4: e8 c7 e1 ff ff               	callq	0x2f90 <.text+0x13e0>
    4dc9: 48 89 45 e0                  	movq	%rax, -32(%rbp)
    4dcd: 48 8b 7d b8                  	movq	-72(%rbp), %rdi
    4dd1: e8 ba ee ff ff               	callq	0x3c90 <.text+0x20e0>
    4dd6: 48 89 45 98                  	movq	%rax, -104(%rbp)
    4dda: 48 8b 45 e0                  	movq	-32(%rbp), %rax
    4dde: 48 8b 4d 98                  	movq	-104(%rbp), %rcx
    4de2: 48 89 4d d0                  	movq	%rcx, -48(%rbp)
    4de6: 48 89 45 d8                  	movq	%rax, -40(%rbp)
    4dea: 48 8b 45 d0                  	movq	-48(%rbp), %rax
    4dee: 48 8b 55 d8                  	movq	-40(%rbp), %rdx
    4df2: 48 83 c4 70                  	addq	$112, %rsp
    4df6: 5d                           	popq	%rbp
    4df7: c3                           	retq
    4df8: cc                           	int3
    4df9: cc                           	int3
    4dfa: cc                           	int3
    4dfb: cc                           	int3
    4dfc: cc                           	int3
    4dfd: cc                           	int3
    4dfe: cc                           	int3
    4dff: cc                           	int3
    4e00: 55                           	pushq	%rbp
    4e01: 48 89 e5                     	movq	%rsp, %rbp
    4e04: 48 83 ec 60                  	subq	$96, %rsp
    4e08: 48 89 7d d8                  	movq	%rdi, -40(%rbp)
    4e0c: 48 8b 07                     	movq	(%rdi), %rax
    4e0f: 48 89 7d c8                  	movq	%rdi, -56(%rbp)
    4e13: 48 89 c7                     	movq	%rax, %rdi
    4e16: e8 95 ee ff ff               	callq	0x3cb0 <.text+0x2100>
    4e1b: 48 89 45 c0                  	movq	%rax, -64(%rbp)
    4e1f: 48 8b 7d c0                  	movq	-64(%rbp), %rdi
    4e23: e8 a8 ee ff ff               	callq	0x3cd0 <.text+0x2120>
    4e28: eb 00                        	jmp	0x4e2a <.text+0x327a>
    4e2a: b8 01 00 00 00               	movl	$1, %eax
    4e2f: 48 83 f8 00                  	cmpq	$0, %rax
    4e33: 74 0f                        	je	0x4e44 <.text+0x3294>
    4e35: 48 8b 45 c8                  	movq	-56(%rbp), %rax
    4e39: 48 8b 78 08                  	movq	8(%rax), %rdi
    4e3d: e8 0e e0 ff ff               	callq	0x2e50 <.text+0x12a0>
    4e42: eb 02                        	jmp	0x4e46 <.text+0x3296>
    4e44: eb 02                        	jmp	0x4e48 <.text+0x3298>
    4e46: eb 00                        	jmp	0x4e48 <.text+0x3298>
    4e48: 48 8b 45 c8                  	movq	-56(%rbp), %rax
    4e4c: 48 8b 38                     	movq	(%rax), %rdi
    4e4f: e8 5c ee ff ff               	callq	0x3cb0 <.text+0x2100>
    4e54: 48 89 45 b8                  	movq	%rax, -72(%rbp)
    4e58: 48 8b 45 b8                  	movq	-72(%rbp), %rax
    4e5c: 48 8b 4d c8                  	movq	-56(%rbp), %rcx
    4e60: 48 3b 41 08                  	cmpq	8(%rcx), %rax
    4e64: 75 0a                        	jne	0x4e70 <.text+0x32c0>
    4e66: 48 c7 45 d0 00 00 00 00      	movq	$0, -48(%rbp)
    4e6e: eb 60                        	jmp	0x4ed0 <.text+0x3320>
    4e70: 48 8b 45 c8                  	movq	-56(%rbp), %rax
    4e74: 48 89 45 e8                  	movq	%rax, -24(%rbp)
    4e78: 48 c7 45 f0 01 00 00 00      	movq	$1, -16(%rbp)
    4e80: 48 8b 38                     	movq	(%rax), %rdi
    4e83: e8 28 ee ff ff               	callq	0x3cb0 <.text+0x2100>
    4e88: 48 89 45 f8                  	movq	%rax, -8(%rbp)
    4e8c: 48 8b 4d c8                  	movq	-56(%rbp), %rcx
    4e90: 48 8b 39                     	movq	(%rcx), %rdi
    4e93: 48 89 45 b0                  	movq	%rax, -80(%rbp)
    4e97: e8 14 ee ff ff               	callq	0x3cb0 <.text+0x2100>
    4e9c: 48 89 c7                     	movq	%rax, %rdi
    4e9f: be 01 00 00 00               	movl	$1, %esi
    4ea4: e8 57 ee ff ff               	callq	0x3d00 <.text+0x2150>
    4ea9: 48 89 c7                     	movq	%rax, %rdi
    4eac: e8 df ed ff ff               	callq	0x3c90 <.text+0x20e0>
    4eb1: 48 8b 4d c8                  	movq	-56(%rbp), %rcx
    4eb5: 48 89 01                     	movq	%rax, (%rcx)
    4eb8: 48 8b 45 b0                  	movq	-80(%rbp), %rax
    4ebc: 48 89 45 e0                  	movq	%rax, -32(%rbp)
    4ec0: 48 8b 55 e0                  	movq	-32(%rbp), %rdx
    4ec4: 48 89 55 a8                  	movq	%rdx, -88(%rbp)
    4ec8: 48 8b 45 a8                  	movq	-88(%rbp), %rax
    4ecc: 48 89 45 d0                  	movq	%rax, -48(%rbp)
    4ed0: 48 8b 45 d0                  	movq	-48(%rbp), %rax
    4ed4: 48 83 c4 60                  	addq	$96, %rsp
    4ed8: 5d                           	popq	%rbp
    4ed9: c3                           	retq
    4eda: cc                           	int3
    4edb: cc                           	int3
    4edc: cc                           	int3
    4edd: cc                           	int3
    4ede: cc                           	int3
    4edf: cc                           	int3
    4ee0: 55                           	pushq	%rbp
    4ee1: 48 89 e5                     	movq	%rsp, %rbp
    4ee4: 48 83 ec 10                  	subq	$16, %rsp
    4ee8: 48 89 7d f8                  	movq	%rdi, -8(%rbp)
    4eec: 48 83 c4 10                  	addq	$16, %rsp
    4ef0: 5d                           	popq	%rbp
    4ef1: c3                           	retq
    4ef2: cc                           	int3
    4ef3: cc                           	int3
    4ef4: cc                           	int3
    4ef5: cc                           	int3
    4ef6: cc                           	int3
    4ef7: cc                           	int3
    4ef8: cc                           	int3
    4ef9: cc                           	int3
    4efa: cc                           	int3
    4efb: cc                           	int3
    4efc: cc                           	int3
    4efd: cc                           	int3
    4efe: cc                           	int3
    4eff: cc                           	int3
    4f00: 55                           	pushq	%rbp
    4f01: 48 89 e5                     	movq	%rsp, %rbp
    4f04: 48 83 ec 50                  	subq	$80, %rsp
    4f08: 48 89 7d f0                  	movq	%rdi, -16(%rbp)
    4f0c: 48 89 f8                     	movq	%rdi, %rax
    4f0f: 48 89 f9                     	movq	%rdi, %rcx
    4f12: 48 81 c1 08 00 00 00         	addq	$8, %rcx
    4f19: 48 89 7d d8                  	movq	%rdi, -40(%rbp)
    4f1d: 48 89 c7                     	movq	%rax, %rdi
    4f20: 48 89 ce                     	movq	%rcx, %rsi
    4f23: e8 98 ea ff ff               	callq	0x39c0 <.text+0x1e10>
    4f28: 88 45 d7                     	movb	%al, -41(%rbp)
    4f2b: 8a 45 d7                     	movb	-41(%rbp), %al
    4f2e: a8 01                        	testb	$1, %al
    4f30: 75 02                        	jne	0x4f34 <.text+0x3384>
    4f32: eb 12                        	jmp	0x4f46 <.text+0x3396>
    4f34: 48 8b 45 d8                  	movq	-40(%rbp), %rax
    4f38: 48 89 c7                     	movq	%rax, %rdi
    4f3b: e8 90 e9 ff ff               	callq	0x38d0 <.text+0x1d20>
    4f40: 48 89 45 c8                  	movq	%rax, -56(%rbp)
    4f44: eb 0a                        	jmp	0x4f50 <.text+0x33a0>
    4f46: 48 c7 45 e0 00 00 00 00      	movq	$0, -32(%rbp)
    4f4e: eb 3a                        	jmp	0x4f8a <.text+0x33da>
    4f50: 48 8b 7d c8                  	movq	-56(%rbp), %rdi
    4f54: be 01 00 00 00               	movl	$1, %esi
    4f59: e8 22 01 00 00               	callq	0x5080 <.text+0x34d0>
    4f5e: 48 89 45 f8                  	movq	%rax, -8(%rbp)
    4f62: 48 89 45 c0                  	movq	%rax, -64(%rbp)
    4f66: 48 8b 45 d8                  	movq	-40(%rbp), %rax
    4f6a: 48 89 c7                     	movq	%rax, %rdi
    4f6d: 48 8b 75 c0                  	movq	-64(%rbp), %rsi
    4f71: e8 4a ec ff ff               	callq	0x3bc0 <.text+0x2010>
    4f76: 48 89 45 b8                  	movq	%rax, -72(%rbp)
    4f7a: 48 8b 45 b8                  	movq	-72(%rbp), %rax
    4f7e: 48 89 45 e8                  	movq	%rax, -24(%rbp)
    4f82: 48 c7 45 e0 01 00 00 00      	movq	$1, -32(%rbp)
    4f8a: 48 8b 45 e0                  	movq	-32(%rbp), %rax
    4f8e: 48 8b 55 e8                  	movq	-24(%rbp), %rdx
    4f92: 48 83 c4 50                  	addq	$80, %rsp
    4f96: 5d                           	popq	%rbp
    4f97: c3                           	retq
    4f98: cc                           	int3
    4f99: cc                           	int3
    4f9a: cc                           	int3
    4f9b: cc                           	int3
    4f9c: cc                           	int3
    4f9d: cc                           	int3
    4f9e: cc                           	int3
    4f9f: cc                           	int3
    4fa0: 55                           	pushq	%rbp
    4fa1: 48 89 e5                     	movq	%rsp, %rbp
    4fa4: 48 83 ec 10                  	subq	$16, %rsp
    4fa8: 48 89 7d f0                  	movq	%rdi, -16(%rbp)
    4fac: 48 89 75 f8                  	movq	%rsi, -8(%rbp)
    4fb0: 48 89 f8                     	movq	%rdi, %rax
    4fb3: 48 89 f2                     	movq	%rsi, %rdx
    4fb6: 48 83 c4 10                  	addq	$16, %rsp
    4fba: 5d                           	popq	%rbp
    4fbb: c3                           	retq
    4fbc: cc                           	int3
    4fbd: cc                           	int3
    4fbe: cc                           	int3
    4fbf: cc                           	int3
    4fc0: 55                           	pushq	%rbp
    4fc1: 48 89 e5                     	movq	%rsp, %rbp
    4fc4: 48 83 ec 30                  	subq	$48, %rsp
    4fc8: 48 89 7d e0                  	movq	%rdi, -32(%rbp)
    4fcc: 48 89 75 e8                  	movq	%rsi, -24(%rbp)
    4fd0: 48 89 7d f0                  	movq	%rdi, -16(%rbp)
    4fd4: 48 89 75 f8                  	movq	%rsi, -8(%rbp)
    4fd8: 48 8b 45 f0                  	movq	-16(%rbp), %rax
    4fdc: 48 8b 55 f8                  	movq	-8(%rbp), %rdx
    4fe0: 48 89 45 d8                  	movq	%rax, -40(%rbp)
    4fe4: 48 89 55 d0                  	movq	%rdx, -48(%rbp)
    4fe8: 48 8b 45 d8                  	movq	-40(%rbp), %rax
    4fec: 48 8b 55 d0                  	movq	-48(%rbp), %rdx
    4ff0: 48 83 c4 30                  	addq	$48, %rsp
    4ff4: 5d                           	popq	%rbp
    4ff5: c3                           	retq
    4ff6: cc                           	int3
    4ff7: cc                           	int3
    4ff8: cc                           	int3
    4ff9: cc                           	int3
    4ffa: cc                           	int3
    4ffb: cc                           	int3
    4ffc: cc                           	int3
    4ffd: cc                           	int3
    4ffe: cc                           	int3
    4fff: cc                           	int3
    5000: 55                           	pushq	%rbp
    5001: 48 89 e5                     	movq	%rsp, %rbp
    5004: 48 83 ec 30                  	subq	$48, %rsp
    5008: 48 89 7d f0                  	movq	%rdi, -16(%rbp)
    500c: 48 89 75 f8                  	movq	%rsi, -8(%rbp)
    5010: e8 2b fc ff ff               	callq	0x4c40 <.text+0x3090>
    5015: 48 89 45 e0                  	movq	%rax, -32(%rbp)
    5019: 48 89 55 d8                  	movq	%rdx, -40(%rbp)
    501d: 48 8b 7d e0                  	movq	-32(%rbp), %rdi
    5021: 48 8b 75 d8                  	movq	-40(%rbp), %rsi
    5025: e8 96 cc ff ff               	callq	0x1cc0 <.text+0x110>
    502a: 48 89 45 d0                  	movq	%rax, -48(%rbp)
    502e: 48 8b 45 d0                  	movq	-48(%rbp), %rax
    5032: 48 83 c4 30                  	addq	$48, %rsp
    5036: 5d                           	popq	%rbp
    5037: c3                           	retq
    5038: cc                           	int3
    5039: cc                           	int3
    503a: cc                           	int3
    503b: cc                           	int3
    503c: cc                           	int3
    503d: cc                           	int3
    503e: cc                           	int3
    503f: cc                           	int3
    5040: 55                           	pushq	%rbp
    5041: 48 89 e5                     	movq	%rsp, %rbp
    5044: 48 83 ec 20                  	subq	$32, %rsp
    5048: 48 89 7d e8                  	movq	%rdi, -24(%rbp)
    504c: 48 89 75 f0                  	movq	%rsi, -16(%rbp)
    5050: 48 8b 06                     	movq	(%rsi), %rax
    5053: 8a 08                        	movb	(%rax), %cl
    5055: 88 4d ff                     	movb	%cl, -1(%rbp)
    5058: 0f b6 f9                     	movzbl	%cl, %edi
    505b: e8 40 e8 ff ff               	callq	0x38a0 <.text+0x1cf0>
    5060: 88 45 e7                     	movb	%al, -25(%rbp)
    5063: 8a 45 e7                     	movb	-25(%rbp), %al
    5066: 34 ff                        	xorb	$-1, %al
    5068: 24 01                        	andb	$1, %al
    506a: 0f b6 c0                     	movzbl	%al, %eax
    506d: 48 83 c4 20                  	addq	$32, %rsp
    5071: 5d                           	popq	%rbp
    5072: c3                           	retq
    5073: cc                           	int3
    5074: cc                           	int3
    5075: cc                           	int3
    5076: cc                           	int3
    5077: cc                           	int3
    5078: cc                           	int3
    5079: cc                           	int3
    507a: cc                           	int3
    507b: cc                           	int3
    507c: cc                           	int3
    507d: cc                           	int3
    507e: cc                           	int3
    507f: cc                           	int3
    5080: 55                           	pushq	%rbp
    5081: 48 89 e5                     	movq	%rsp, %rbp
    5084: 48 83 ec 20                  	subq	$32, %rsp
    5088: 48 89 7d f0                  	movq	%rdi, -16(%rbp)
    508c: 48 89 75 f8                  	movq	%rsi, -8(%rbp)
    5090: e8 7b e9 ff ff               	callq	0x3a10 <.text+0x1e60>
    5095: 48 89 45 e8                  	movq	%rax, -24(%rbp)
    5099: 48 8b 45 e8                  	movq	-24(%rbp), %rax
    509d: 48 83 c4 20                  	addq	$32, %rsp
    50a1: 5d                           	popq	%rbp
    50a2: c3                           	retq
    50a3: cc                           	int3
    50a4: cc                           	int3
    50a5: cc                           	int3
    50a6: cc                           	int3
    50a7: cc                           	int3
    50a8: cc                           	int3
    50a9: cc                           	int3
    50aa: cc                           	int3
    50ab: cc                           	int3
    50ac: cc                           	int3
    50ad: cc                           	int3
    50ae: cc                           	int3
    50af: cc                           	int3
    50b0: 55                           	pushq	%rbp
    50b1: 48 89 e5                     	movq	%rsp, %rbp
    50b4: 48 83 ec 18                  	subq	$24, %rsp
    50b8: 48 b8 fe 13 a4 8c f1 f2 27 90	movabsq	$-8059205888895609858, %rax
    50c2: 48 89 45 f8                  	movq	%rax, -8(%rbp)
    50c6: 48 8b 45 f8                  	movq	-8(%rbp), %rax
    50ca: 48 89 45 e8                  	movq	%rax, -24(%rbp)
    50ce: 48 8b 45 e8                  	movq	-24(%rbp), %rax
    50d2: 48 89 45 f0                  	movq	%rax, -16(%rbp)
    50d6: 48 8b 45 f0                  	movq	-16(%rbp), %rax
    50da: 48 83 c4 18                  	addq	$24, %rsp
    50de: 5d                           	popq	%rbp
    50df: c3                           	retq
    50e0: 55                           	pushq	%rbp
    50e1: 48 89 e5                     	movq	%rsp, %rbp
    50e4: 48 83 ec 50                  	subq	$80, %rsp
    50e8: 48 89 7d d0                  	movq	%rdi, -48(%rbp)
    50ec: 48 89 75 d8                  	movq	%rsi, -40(%rbp)
    50f0: 48 89 7d e0                  	movq	%rdi, -32(%rbp)
    50f4: 48 89 75 e8                  	movq	%rsi, -24(%rbp)
    50f8: 48 89 7d f0                  	movq	%rdi, -16(%rbp)
    50fc: 48 89 75 f8                  	movq	%rsi, -8(%rbp)
    5100: 48 8b 7d f0                  	movq	-16(%rbp), %rdi
    5104: 48 8b 75 f8                  	movq	-8(%rbp), %rsi
    5108: 48 89 7d c8                  	movq	%rdi, -56(%rbp)
    510c: 48 89 75 c0                  	movq	%rsi, -64(%rbp)
    5110: 48 8b 7d c8                  	movq	-56(%rbp), %rdi
    5114: 48 8b 75 c0                  	movq	-64(%rbp), %rsi
    5118: e8 83 00 00 00               	callq	0x51a0 <.text+0x35f0>
    511d: 48 89 45 b8                  	movq	%rax, -72(%rbp)
    5121: 48 8b 45 b8                  	movq	-72(%rbp), %rax
    5125: 48 83 c4 50                  	addq	$80, %rsp
    5129: 5d                           	popq	%rbp
    512a: c3                           	retq
    512b: cc                           	int3
    512c: cc                           	int3
    512d: cc                           	int3
    512e: cc                           	int3
    512f: cc                           	int3
    5130: 55                           	pushq	%rbp
    5131: 48 89 e5                     	movq	%rsp, %rbp
    5134: 48 83 ec 60                  	subq	$96, %rsp
    5138: 48 89 7d d0                  	movq	%rdi, -48(%rbp)
    513c: 48 89 75 d8                  	movq	%rsi, -40(%rbp)
    5140: 48 89 7d e0                  	movq	%rdi, -32(%rbp)
    5144: 48 89 75 e8                  	movq	%rsi, -24(%rbp)
    5148: 48 89 7d f0                  	movq	%rdi, -16(%rbp)
    514c: 48 89 75 f8                  	movq	%rsi, -8(%rbp)
    5150: 48 8b 7d f0                  	movq	-16(%rbp), %rdi
    5154: 48 8b 75 f8                  	movq	-8(%rbp), %rsi
    5158: 48 89 7d b8                  	movq	%rdi, -72(%rbp)
    515c: 48 89 75 b0                  	movq	%rsi, -80(%rbp)
    5160: 48 8b 7d b8                  	movq	-72(%rbp), %rdi
    5164: 48 8b 75 b0                  	movq	-80(%rbp), %rsi
    5168: e8 83 00 00 00               	callq	0x51f0 <.text+0x3640>
    516d: 48 89 45 a8                  	movq	%rax, -88(%rbp)
    5171: 48 89 55 a0                  	movq	%rdx, -96(%rbp)
    5175: 48 8b 45 a8                  	movq	-88(%rbp), %rax
    5179: 48 89 45 c0                  	movq	%rax, -64(%rbp)
    517d: 48 8b 4d a0                  	movq	-96(%rbp), %rcx
    5181: 48 89 4d c8                  	movq	%rcx, -56(%rbp)
    5185: 48 8b 45 c0                  	movq	-64(%rbp), %rax
    5189: 48 8b 55 c8                  	movq	-56(%rbp), %rdx
    518d: 48 83 c4 60                  	addq	$96, %rsp
    5191: 5d                           	popq	%rbp
    5192: c3                           	retq
    5193: cc                           	int3
    5194: cc                           	int3
    5195: cc                           	int3
    5196: cc                           	int3
    5197: cc                           	int3
    5198: cc                           	int3
    5199: cc                           	int3
    519a: cc                           	int3
    519b: cc                           	int3
    519c: cc                           	int3
    519d: cc                           	int3
    519e: cc                           	int3
    519f: cc                           	int3
    51a0: 55                           	pushq	%rbp
    51a1: 48 89 e5                     	movq	%rsp, %rbp
    51a4: 48 83 ec 20                  	subq	$32, %rsp
    51a8: 48 89 7d f0                  	movq	%rdi, -16(%rbp)
    51ac: 48 89 75 f8                  	movq	%rsi, -8(%rbp)
    51b0: 48 89 7d e0                  	movq	%rdi, -32(%rbp)
    51b4: 48 89 75 e8                  	movq	%rsi, -24(%rbp)
    51b8: 48 8b 45 e8                  	movq	-24(%rbp), %rax
    51bc: 48 83 c4 20                  	addq	$32, %rsp
    51c0: 5d                           	popq	%rbp
    51c1: c3                           	retq
    51c2: cc                           	int3
    51c3: cc                           	int3
    51c4: cc                           	int3
    51c5: cc                           	int3
    51c6: cc                           	int3
    51c7: cc                           	int3
    51c8: cc                           	int3
    51c9: cc                           	int3
    51ca: cc                           	int3
    51cb: cc                           	int3
    51cc: cc                           	int3
    51cd: cc                           	int3
    51ce: cc                           	int3
    51cf: cc                           	int3
    51d0: 55                           	pushq	%rbp
    51d1: 48 89 e5                     	movq	%rsp, %rbp
    51d4: 48 83 ec 10                  	subq	$16, %rsp
    51d8: 48 89 7d f0                  	movq	%rdi, -16(%rbp)
    51dc: 48 89 75 f8                  	movq	%rsi, -8(%rbp)
    51e0: 48 89 f8                     	movq	%rdi, %rax
    51e3: 48 83 c4 10                  	addq	$16, %rsp
    51e7: 5d                           	popq	%rbp
    51e8: c3                           	retq
    51e9: cc                           	int3
    51ea: cc                           	int3
    51eb: cc                           	int3
    51ec: cc                           	int3
    51ed: cc                           	int3
    51ee: cc                           	int3
    51ef: cc                           	int3
    51f0: 55                           	pushq	%rbp
    51f1: 48 89 e5                     	movq	%rsp, %rbp
    51f4: 48 83 ec 20                  	subq	$32, %rsp
    51f8: 48 89 7d f0                  	movq	%rdi, -16(%rbp)
    51fc: 48 89 75 f8                  	movq	%rsi, -8(%rbp)
    5200: e8 3b fb ff ff               	callq	0x4d40 <.text+0x3190>
    5205: 48 89 45 e8                  	movq	%rax, -24(%rbp)
    5209: 48 89 55 e0                  	movq	%rdx, -32(%rbp)
    520d: 48 8b 45 e8                  	movq	-24(%rbp), %rax
    5211: 48 8b 55 e0                  	movq	-32(%rbp), %rdx
    5215: 48 83 c4 20                  	addq	$32, %rsp
    5219: 5d                           	popq	%rbp
    521a: c3                           	retq
    521b: cc                           	int3
    521c: cc                           	int3
    521d: cc                           	int3
    521e: cc                           	int3
    521f: cc                           	int3
    5220: 55                           	pushq	%rbp
    5221: 48 89 e5                     	movq	%rsp, %rbp
    5224: 48 83 ec 48                  	subq	$72, %rsp
    5228: 48 89 7d c0                  	movq	%rdi, -64(%rbp)
    522c: 48 89 75 c8                  	movq	%rsi, -56(%rbp)
    5230: 48 89 55 d0                  	movq	%rdx, -48(%rbp)
    5234: 48 89 7d d8                  	movq	%rdi, -40(%rbp)
    5238: 48 89 75 e0                  	movq	%rsi, -32(%rbp)
    523c: 48 89 55 e8                  	movq	%rdx, -24(%rbp)
    5240: 48 89 d0                     	movq	%rdx, %rax
    5243: 48 c1 e8 03                  	shrq	$3, %rax
    5247: 48 89 45 f0                  	movq	%rax, -16(%rbp)
    524b: 48 81 e2 07 00 00 00         	andq	$7, %rdx
    5252: 48 89 55 f8                  	movq	%rdx, -8(%rbp)
    5256: 48 89 f9                     	movq	%rdi, %rcx
    5259: 48 89 7d b8                  	movq	%rdi, -72(%rbp)
    525d: 48 89 cf                     	movq	%rcx, %rdi
    5260: 48 89 c1                     	movq	%rax, %rcx
    5263: f3 48 a5                     	rep		movsq	(%rsi), %es:(%rdi)
    5266: 89 d1                        	movl	%edx, %ecx
    5268: f3 a4                        	rep		movsb	(%rsi), %es:(%rdi)
    526a: 48 8b 45 b8                  	movq	-72(%rbp), %rax
    526e: 48 83 c4 48                  	addq	$72, %rsp
    5272: 5d                           	popq	%rbp
    5273: c3                           	retq
    5274: cc                           	int3
    5275: cc                           	int3
    5276: cc                           	int3
    5277: cc                           	int3
    5278: cc                           	int3
    5279: cc                           	int3
    527a: cc                           	int3
    527b: cc                           	int3
    527c: cc                           	int3
    527d: cc                           	int3
    527e: cc                           	int3
    527f: cc                           	int3
    5280: 55                           	pushq	%rbp
    5281: 48 89 e5                     	movq	%rsp, %rbp
    5284: 48 83 ec 70                  	subq	$112, %rsp
    5288: 48 89 7d c0                  	movq	%rdi, -64(%rbp)
    528c: 89 75 cc                     	movl	%esi, -52(%rbp)
    528f: 48 89 55 d0                  	movq	%rdx, -48(%rbp)
    5293: 48 89 7d d8                  	movq	%rdi, -40(%rbp)
    5297: 40 88 75 e7                  	movb	%sil, -25(%rbp)
    529b: 48 89 55 e8                  	movq	%rdx, -24(%rbp)
    529f: 48 89 d0                     	movq	%rdx, %rax
    52a2: 48 c1 e8 03                  	shrq	$3, %rax
    52a6: 48 89 45 f0                  	movq	%rax, -16(%rbp)
    52aa: 48 81 e2 07 00 00 00         	andq	$7, %rdx
    52b1: 48 89 55 f8                  	movq	%rdx, -8(%rbp)
    52b5: 40 0f b6 ce                  	movzbl	%sil, %ecx
    52b9: 41 89 c8                     	movl	%ecx, %r8d
    52bc: 48 89 45 b8                  	movq	%rax, -72(%rbp)
    52c0: 4c 89 c0                     	movq	%r8, %rax
    52c3: 49 b8 01 01 01 01 01 01 01 01	movabsq	$72340172838076673, %r8
    52cd: 48 89 55 b0                  	movq	%rdx, -80(%rbp)
    52d1: 49 f7 e0                     	mulq	%r8
    52d4: 40 0f 90 c6                  	seto	%sil
    52d8: 40 f6 c6 01                  	testb	$1, %sil
    52dc: 48 89 7d a8                  	movq	%rdi, -88(%rbp)
    52e0: 48 89 45 a0                  	movq	%rax, -96(%rbp)
    52e4: 75 02                        	jne	0x52e8 <.text+0x3738>
    52e6: eb 1a                        	jmp	0x5302 <.text+0x3752>
    52e8: 48 8d 3d 91 b8 ff ff         	leaq	-18287(%rip), %rdi  # b80
    52ef: 48 8d 15 42 12 00 00         	leaq	4674(%rip), %rdx  # 6538
    52f6: be 21 00 00 00               	movl	$33, %esi
    52fb: e8 60 ca ff ff               	callq	0x1d60 <.text+0x1b0>
    5300: 0f 0b                        	ud2
    5302: 48 8b 45 b0                  	movq	-80(%rbp), %rax
    5306: 48 8b 4d b8                  	movq	-72(%rbp), %rcx
    530a: 48 8b 55 a8                  	movq	-88(%rbp), %rdx
    530e: 48 8b 75 a0                  	movq	-96(%rbp), %rsi
    5312: 48 89 45 98                  	movq	%rax, -104(%rbp)
    5316: 48 89 f0                     	movq	%rsi, %rax
    5319: 48 89 d7                     	movq	%rdx, %rdi
    531c: 48 8b 55 98                  	movq	-104(%rbp), %rdx
    5320: f3 48 ab                     	rep		stosq	%rax, %es:(%rdi)
    5323: 89 d1                        	movl	%edx, %ecx
    5325: f3 aa                        	rep		stosb	%al, %es:(%rdi)
    5327: 48 8b 45 a8                  	movq	-88(%rbp), %rax
    532b: 48 83 c4 70                  	addq	$112, %rsp
    532f: 5d                           	popq	%rbp
    5330: c3                           	retq
